ccollections
defaultdict
p0
(c__builtin__
dict
p1
tp2
Rp3
S'Europe'
p4
(dp5
VItaly
p6
(lp7
VFlorence
p8
aVBologna
p9
aVMilan
p10
aVVenice
p11
aVRome
p12
aVNaples
p13
asVBosnia Hercegovina
p14
(lp15
sVFaroe Islands
p16
(lp17
sVLithuania
p18
(lp19
sVLuxembourg
p20
(lp21
sVFrance
p22
(lp23
VNice
p24
aVBordeaux
p25
aVParis
p26
aVCorsica
p27
asVAndorra
p28
(lp29
sVNetherlands
p30
(lp31
VAmsterdam
p32
asVSlovakia
p33
(lp34
sVGibraltar
p35
(lp36
sVIreland
p37
(lp38
VDublin
p39
aVBelfast
p40
asVWales
p41
(lp42
sVNorway
p43
(lp44
VOslo
p45
asVHoly See
p46
(lp47
S'Vatican City'
p48
asVBelarus
p49
(lp50
sVScotland
p51
(lp52
VScottish Highlands And Islands
p53
aVEdinburgh
p54
aVGlasgow
p55
asVIceland
p56
(lp57
VReykjavik
p58
asVCzech Republic
p59
(lp60
VPrague
p61
asVSlovenia
p62
(lp63
sVGermany
p64
(lp65
VHamburg
p66
aVStuttgart
p67
aVMunich
p68
aVFrankfurt
p69
aVBerlin
p70
asVArmenia
p71
(lp72
sVBelgium
p73
(lp74
VAntwerp
p75
aVBrussels
p76
asVSpain
p77
(lp78
VMadrid
p79
aVCanary Islands
p80
aVBarcelona
p81
aVMallorca
p82
aVSeville
p83
aVAndalucia
p84
aVAlicante
p85
aVBalearic Islands
p86
asVUkraine
p87
(lp88
sVSan Marino
p89
(lp90
sVGeorgia
p91
(lp92
sVDenmark
p93
(lp94
VCopenhagen
p95
asVPoland
p96
(lp97
sVFinland
p98
(lp99
VHelsinki
p100
asVMacedonia
p101
(lp102
sVMoldova
p103
(lp104
sVSweden
p105
(lp106
VStockholm
p107
asVLatvia
p108
(lp109
sVCroatia
p110
(lp111
sVMalta
p112
(lp113
sVMonaco
p114
(lp115
sVSwitzerland
p116
(lp117
VZurich
p118
aVGeneva
p119
asVRussia
p120
(lp121
VSt Petersburg
p122
aVMoscow
p123
asVBulgaria
p124
(lp125
sVRomania
p126
(lp127
sVGreenland
p128
(lp129
sVEngland
p130
(lp131
VLeeds
p132
aVManchester
p133
aVBirmingham
p134
aVLondon
p135
aVYork
p136
aVLiverpool
p137
asVEstonia
p138
(lp139
sVPortugal
p140
(lp141
VLisbon
p142
asVLiechtenstein
p143
(lp144
sVAzerbaijan
p145
(lp146
sVAustria
p147
(lp148
VSalzburg
p149
aVVienna
p150
asVGreece
p151
(lp152
VCyclades Islands
p153
aVDodecanese Islands
p154
aVCrete
p155
aVAthens
p156
aVIonian Islands
p157
asVHungary
p158
(lp159
VBudapest
p160
asVCyprus
p161
(lp162
sVAlbania
p163
(lp164
ssS'Caribbean'
p165
(dp166
VSaint Martin
p167
(lp168
sVUs Virgin Islands
p169
(lp170
sVCuracao
p171
(lp172
sVSaint Lucia
p173
(lp174
sVBahamas
p175
(lp176
sVTurks And Caicos
p177
(lp178
sVAruba
p179
(lp180
sVAnguilla
p181
(lp182
sVGuadeloupe
p183
(lp184
sVCuba
p185
(lp186
VHavana
p187
asVPuerto Rico
p188
(lp189
VSan Juan
p190
asVMartinique
p191
(lp192
sVHaiti
p193
(lp194
sVSint Eustatius
p195
(lp196
sVDominica
p197
(lp198
sVCayman Islands
p199
(lp200
sVSaint Kitts And Nevis
p201
(lp202
sVAntigua And Barbuda
p203
(lp204
sVGrenada
p205
(lp206
sVSaba
p207
(lp208
sVJamaica
p209
(lp210
sVBonaire
p211
(lp212
sVTrinidad And Tobago
p213
(lp214
sVSaint Vincent And The Grenadines
p215
(lp216
sVBritish Virgin Islands
p217
(lp218
sVSint Maarten
p219
(lp220
sVBarbados
p221
(lp222
ssS'North East Asia'
p223
(dp224
VMacau
p225
(lp226
sVMongolia
p227
(lp228
sVNorth Korea
p229
(lp230
sVChina
p231
(lp232
VTibet
p233
aVBeijing
p234
aVShanghai
p235
asVJapan
p236
(lp237
VTokyo
p238
aVKyoto
p239
asVTaiwan
p240
(lp241
VTaipei
p242
asVHong Kong
p243
(lp244
sVSouth Korea
p245
(lp246
VSeoul
p247
assS'Central America'
p248
(dp249
VHonduras
p250
(lp251
sVEl Salvador
p252
(lp253
sVPanama
p254
(lp255
sVCosta Rica
p256
(lp257
sVGuatemala
p258
(lp259
sVBelize
p260
(lp261
sVNicaragua
p262
(lp263
ssS'Indian Subcontinent'
p264
(dp265
VPakistan
p266
(lp267
sVMaldives
p268
(lp269
sVBangladesh
p270
(lp271
sVBhutan
p272
(lp273
sVNepal
p274
(lp275
VKathmandu
p276
asVIndia
p277
(lp278
VMumbai
p279
aVDelhi
p280
aVKolkata
p281
aVGoa
p282
asVSri Lanka
p283
(lp284
ssS'Africa'
p285
(dp286
VMadagascar
p287
(lp288
sVMauritania
p289
(lp290
sVGuinea
p291
(lp292
sVEthiopia
p293
(lp294
sVRwanda
p295
(lp296
sVSwaziland
p297
(lp298
sVNigeria
p299
(lp300
sVCameroon
p301
(lp302
sVBurkina Faso
p303
(lp304
sVBenin
p305
(lp306
sVGhana
p307
(lp308
sVComoros And Mayotte
p309
(lp310
sVZambia
p311
(lp312
sVCape Verde
p313
(lp314
sVMalawi
p315
(lp316
sVTogo
p317
(lp318
sVZimbabwe
p319
(lp320
sVGambia
p321
(lp322
sVDjibouti
p323
(lp324
sVEritrea
p325
(lp326
sVLibya
p327
(lp328
sVCote Divoire
p329
(lp330
sVTanzania
p331
(lp332
VZanzibar
p333
asVGuinea Bissau
p334
(lp335
sVCentral African Republic
p336
(lp337
sVMauritius
p338
(lp339
sVMorocco
p340
(lp341
sVGabon
p342
(lp343
sVEgypt
p344
(lp345
VCairo
p346
asVMali
p347
(lp348
sVNamibia
p349
(lp350
sVSao Tome And Principe
p351
(lp352
sVSeychelles
p353
(lp354
sVChad
p355
(lp356
sVSouth Africa
p357
(lp358
VCape Town
p359
asVTunisia
p360
(lp361
sVEquatorial Guinea
p362
(lp363
sVLesotho
p364
(lp365
sVSenegal
p366
(lp367
sVMozambique
p368
(lp369
sVUganda
p370
(lp371
sVReunion
p372
(lp373
sVKenya
p374
(lp375
VNairobi
p376
asVNiger
p377
(lp378
sVBotswana
p379
(lp380
ssS'Antarctica'
p381
(dp382
VAntarctica
p383
(lp384
ssS'Pacific'
p385
(dp386
VFederated States Of Micronesia
p387
(lp388
sVTonga
p389
(lp390
sVSamoa
p391
(lp392
sVNorthern Mariana Islands
p393
(lp394
sVTokelau
p395
(lp396
sVTuvalu
p397
(lp398
sVGuam
p399
(lp400
sVWallis And Futuna
p401
(lp402
sVKiribati
p403
(lp404
sVPitcairn Islands
p405
(lp406
sVNew Caledonia
p407
(lp408
sVSolomon Islands
p409
(lp410
sVMarshall Islands
p411
(lp412
sVNiue
p413
(lp414
sVVanuatu
p415
(lp416
sVPalau
p417
(lp418
sVNauru
p419
(lp420
sVFiji
p421
(lp422
sVAmerican Samoa
p423
(lp424
sVCook Islands
p425
(lp426
sVTahiti And French Polynesia
p427
(lp428
ssS'North America'
p429
(dp430
VCanada
p431
(lp432
VQuebec City
p433
aVVancouver
p434
aVToronto
p435
aVMontreal
p436
asVBermuda
p437
(lp438
sVUsa
p439
(lp440
VBaltimore
p441
aVSeattle
p442
aVMarthas Vineyard
p443
aVBoston
p444
aVReno
p445
aVSedona
p446
aVDetroit
p447
aVPhoenix
p448
aVFort Lauderdale
p449
aVPhiladelphia
p450
aVJuneau
p451
aVDallas
p452
aVCape Cod
p453
aVHawaii
p454
aVSanta Barbara
p455
aVMaui
p456
aVNashville
p457
aVAtlantic City
p458
aVAspen
p459
aVTaos
p460
aVSan Diego
p461
aVAtlanta
p462
aVSanta Fe
p463
aVTucson
p464
aVHonolulu
p465
aVSan Francisco
p466
aVMinneapolis
p467
aVMolokai
p468
aVKey West
p469
aVPortland
p470
aVDenver
p471
aVOahu
p472
aVBranson
p473
aVAnchorage
p474
aVOrlando
p475
aVAustin
p476
aVCincinnati
p477
aVNew York City
p478
aVSalt Lake City
p479
aVMiami
p480
aVAlbuquerque
p481
aVNew Orleans
p482
aVWashington Dc
p483
aVSan Antonio
p484
aVHouston
p485
aVNapa Valley
p486
aVHalifax
p487
aVLas Vegas
p488
aVChicago
p489
aVAlaska
p490
aVMemphis
p491
aVScottsdale
p492
aVFairbanks
p493
aVTampa
p494
aVLos Angeles
p495
asVMexico
p496
(lp497
VAcapulco
p498
aVCabo San Lucas
p499
aVMexico City
p500
aVCancun
p501
aVMazatlan
p502
aVCozumel
p503
aVPuerto Vallarta
p504
aVSan Jose Del Cabo
p505
assS'Australasia'
p506
(dp507
VNew Zealand
p508
(lp509
VAuckland
p510
aVChristchurch
p511
asVAustralia
p512
(lp513
VNew South Wales
p514
aVSydney
p515
aVAdelaide
p516
aVDarwin
p517
aVHobart
p518
aVBrisbane
p519
aVMelbourne
p520
aVCanberra
p521
aVPerth
p522
asVPapua New Guinea
p523
(lp524
ssS'South America'
p525
(dp526
VBrazil
p527
(lp528
VRio De Janeiro
p529
asVFalkland Islands
p530
(lp531
sVColombia
p532
(lp533
sVSuriname
p534
(lp535
sVUruguay
p536
(lp537
VMontevideo
p538
asVEcuador And The Galapagos Islands
p539
(lp540
sVFrench Guiana
p541
(lp542
sVPeru
p543
(lp544
VLima
p545
asVGuyana
p546
(lp547
sVParaguay
p548
(lp549
sVArgentina
p550
(lp551
VBuenos Aires
p552
asVBolivia
p553
(lp554
sVVenezuela
p555
(lp556
VCaracas
p557
asVChile And Easter Island
p558
(lp559
VSantiago
p560
assS'South East Asia'
p561
(dp562
VEast Timor
p563
(lp564
sVBrunei
p565
(lp566
sVMyanmar
p567
(lp568
sVSingapore
p569
(lp570
sVPhilippines
p571
(lp572
VManila
p573
asVIndonesia
p574
(lp575
VJava
p576
aVJakarta
p577
aVLombok
p578
aVBali
p579
aVSumatra
p580
asVCambodia
p581
(lp582
sVMalaysia
p583
(lp584
VKuala Lumpur
p585
asVVietnam
p586
(lp587
VHanoi
p588
aVHo Chi Minh
p589
asVLaos
p590
(lp591
sVThailand
p592
(lp593
VChiang Mai
p594
aVBangkok
p595
assS'Middle East'
p596
(dp597
VBahrain
p598
(lp599
sVTurkey
p600
(lp601
VIstanbul
p602
asVSaudi Arabia
p603
(lp604
sVIran
p605
(lp606
VTehran
p607
asVUnited Arab Emirates
p608
(lp609
VDubai
p610
aVAbu Dhabi
p611
asVAfghanistan
p612
(lp613
sVOman
p614
(lp615
sVIsrael And The Palestinian Territories
p616
(lp617
sVLebanon
p618
(lp619
sVQatar
p620
(lp621
sVJordan
p622
(lp623
sVKuwait
p624
(lp625
sVSyria
p626
(lp627
sVYemen
p628
(lp629
ssS'Central Asia'
p630
(dp631
VUzbekistan
p632
(lp633
sVKyrgyzstan
p634
(lp635
sVKazakstan
p636
(lp637
sVTajikistan
p638
(lp639
sVTurkmenistan
p640
(lp641
ss.