(lp0
(lp1
I0
aI106
aI188
aI272
aI371
aI552
aI622
aI695
aI735
aI872
aI969
aa(lp2
I0
aI128
aI217
aI459
aI542
aa(lp3
I0
aI102
aI190
aI349
aI501
aI588
aI885
aa(lp4
I0
aI67
aI129
aI275
aI302
aI366
aI427
aI500
aI525
aI597
aI671
aI917
aI1020
aI1062
aI1165
aI1268
aI1412
aI1623
aa(lp5
I0
aI85
aI251
aI331
aI467
aI557
aI726
aI763
aI850
aa(lp6
I0
aI195
aI302
aI448
aa(lp7
I0
aI219
aI429
aI523
aI602
aI743
aI915
aI1048
aI1121
aI1234
aI1361
aI1436
aa(lp8
I0
aI238
aI330
aI434
aI585
aI745
aI936
aI1038
aI1170
aI1329
aI1581
aI1766
aI1841
aI2049
aI2141
aI2234
aI2320
aI2451
aI2552
aa(lp9
I0
aI453
aI599
aI692
aI894
aI1101
aa(lp10
I0
aI133
aI280
aI521
aI639
aI884
aI996
aI1130
aI1286
aI1353
aa(lp11
I0
aI166
aI254
aI321
aa(lp12
I0
aI167
aI267
aI469
aI601
aI719
aI833
aI887
aI983
aI1036
aI1107
aI1285
aI1415
aI1496
aa(lp13
I0
aI243
aI371
aI526
aI569
aI651
aI781
aI973
aI1163
aI1279
aI1379
aI1433
aI1549
aI1640
aI1732
aa(lp14
I0
aI192
aI456
aI621
aI775
aI872
aI1012
aI1201
aI1260
aI1377
aI1500
aI1535
aI1808
aI1967
aa(lp15
I0
aI172
aI217
aI286
aI417
aI672
aI778
aI1032
aI1105
aI1207
aa(lp16
I0
aI211
aI407
aI490
aI617
aI682
aI810
aI901
aI1007
aI1112
aI1300
aI1427
aa(lp17
I0
aI100
aI225
aI305
aI488
aI626
aI727
aI826
aI941
aI1072
aI1205
aI1303
aa(lp18
I0
aI65
aI199
aI390
aI566
aI699
aI779
aI875
aI1040
aI1226
aI1328
aI1486
aI1582
aI1614
aI1718
aI1937
aI2048
aI2178
aI2405
aI3184
aa(lp19
I0
aI186
aI373
aI514
aI619
aI751
aI910
aI1018
aI1175
aa(lp20
I0
aI151
aI227
aI390
aI482
aI571
aI702
aI821
aI923
aa(lp21
I0
aI215
aI260
aI391
aI628
aI767
aI909
aI1003
aI1094
aI1182
aI1363
aI1472
aI1592
aa(lp22
I0
aI272
aI483
aI640
aI725
aI838
aI957
aI1061
aI1261
aI1412
aI1460
aI1594
aa(lp23
I0
aI523
aI653
aI764
aI919
aI1030
aI1116
aI1359
aI1525
aI1618
aI1658
aa(lp24
I0
aI84
aI237
aI377
aI541
aI665
aa(lp25
I0
aI100
aI193
aI272
aI363
aI464
aI540
aI667
aI744
aI844
aI914
aa(lp26
I0
aI189
aI285
aI622
aa(lp27
I0
aI124
aI303
aI378
aI482
aI571
aa(lp28
I0
aI124
aI216
aI270
aI487
aI612
aI682
aI775
aI896
aI1060
aI1154
aI1211
aI1330
aI1431
aI1603
aa(lp29
I0
aI96
aI225
aI275
aI441
aI541
aa(lp30
I0
aI63
aI154
aI289
aI338
aa(lp31
I0
aI74
aI264
aI333
aI411
aI535
aI616
aI664
aI785
aI833
aI952
aa(lp32
I0
aI120
aI449
aI573
aI670
aI779
aI870
aI1006
aI1163
aI1299
aI1452
aI1530
aI1601
aI1717
aa(lp33
I0
aI337
aI378
aI453
aI539
aI636
aa(lp34
I0
aI123
aI222
aI366
aI503
aa(lp35
I0
aI204
aI281
aI431
aa(lp36
I0
aI120
aI219
aI287
aI410
aI533
aI642
aI836
aI982
aI1142
aI1210
aI1325
aI1513
aI1619
aI1692
aI1807
aI2003
aI2119
aI2244
aI2297
aI2458
aI2569
aa(lp37
I0
aI290
aI385
aI527
aI666
aI757
aI810
aI977
aI1143
aI1231
aI1392
aI1522
aI1739
aI1899
aa(lp38
I0
aI109
aI195
aI674
aI812
aI935
aI1030
aI1088
aI1210
aI1332
aI1397
aI1456
aa(lp39
I0
aI141
aI335
aI427
aa(lp40
I0
aI70
aI194
aI367
aa(lp41
I0
aI145
aI251
aI387
aI502
aI625
aI724
aa(lp42
I0
aI58
aI189
aI264
aI394
aI514
aI640
aI678
aI790
aI900
aI924
aI1064
aI1148
aa(lp43
I0
aI95
aI191
aI269
aI310
aI504
aI968
aI1079
aI1236
aI1407
aI1496
aI1592
aI1717
aa(lp44
I0
aI118
aI277
aI357
aI518
aa(lp45
I0
aI133
aI186
aI294
aI434
aI517
aI667
aI811
aI933
aI1102
aa(lp46
I0
aI168
aI240
aI456
aI614
aI707
aI913
aI1066
aI1151
aI1244
aI1330
aI1474
aI1506
aI1688
aI1786
aI1910
aI2006
aI2099
aI2191
aI2372
aI2557
aI2725
aI2859
aa(lp47
I0
aI189
aI406
aI585
aI789
aI924
aI1113
aI1206
aI1435
aI1574
aI1764
aI1786
aI1939
aI2066
aI2250
aa(lp48
I0
aI76
aI112
aI261
aI370
aI731
aI900
aI972
aI1157
aI1231
aI1324
aI1424
aa(lp49
I0
aI180
aI211
aI386
aI593
aI715
aI796
aI1001
aa(lp50
I0
aI67
aI179
aI277
aI321
aI386
aI505
aa(lp51
I0
aI173
aI350
aI525
aI717
aI825
aI927
aI1011
aI1142
aI1295
aI1371
aI1487
aI1702
aI1906
aa(lp52
I0
aI224
aI302
aI459
aI589
aI718
aI817
aI1016
aI1139
aI1248
aI1403
aa(lp53
I0
aI560
aI732
aI893
aI1010
aI1172
aI1230
aI1294
aI1458
aI1535
aI1594
aI1749
aI1879
aa(lp54
I0
aI73
aI201
aI295
aI412
aI470
aI614
aI690
aI734
aa(lp55
I0
aI146
aI293
aa(lp56
I0
aI99
aI188
aI342
aI524
aI706
aI815
aI894
aI998
aI1118
aI1176
aI1266
aI1360
aI1505
aI1598
aa(lp57
I0
aI148
aI340
aI490
aI672
aI751
aI851
aa(lp58
I0
aI79
aI131
aI429
aI498
aa(lp59
I0
aI150
aI219
aI382
aI483
aI602
aI696
aa(lp60
I0
aI137
aI295
aI426
aI575
aa(lp61
I0
aI115
aI313
aI494
aI694
aI871
aI957
aI1077
aI1215
aI1607
aI1666
aI1726
aI1902
aI2091
aI2194
aI2310
aI2416
aI2570
aI2741
aa(lp62
I0
aI131
aI311
aI440
aI493
aI625
aI771
aI867
aI955
aI1067
aI1193
aI1329
aI1406
aI1483
aI1571
aI1690
aI1739
aI1917
aI1988
aI2066
aI2184
aa(lp63
I0
aI119
aI179
aI304
aI396
aI596
aI787
aI905
aI1041
aI1212
aI1342
aI1448
aI1546
aI1703
aI1795
aI1934
aI2018
aI2144
aa(lp64
I0
aI167
aI259
aI338
aI458
aI567
aI665
aI843
aI1050
aa(lp65
I0
aI81
aI199
aI302
aI401
aa(lp66
I0
aI140
aI251
aI378
aI616
aI709
aI768
aI882
aI1010
aa(lp67
I0
aI262
aI306
aI412
aI523
aI694
aI742
aa(lp68
I0
aI118
aI414
aI767
aI854
aI959
aI1077
aI1160
aa(lp69
I0
aI137
aI213
aI270
aa(lp70
I0
aI244
aI411
aI553
aI644
aI790
aI984
aa(lp71
I0
aI211
aI380
aI519
aI733
aI974
aI1372
aI1562
aI1825
aI2059
aa(lp72
I0
aI228
aI561
aI681
aI864
aI1035
aI1267
aI1342
aI1488
aI1680
aI1744
aa(lp73
I0
aI195
aI346
aI702
aI772
aI1293
aI1456
aI1563
aI1779
aa(lp74
I0
aI187
aI396
aI581
aI811
aI1118
aI1321
aa(lp75
I0
aI179
aI321
aI426
aI531
aa(lp76
I0
aI156
aI290
aI411
aI480
aI626
aI753
aI884
aI1026
aI1164
aI1312
aI1375
aI1516
aI1659
aI1707
aI1798
aa(lp77
I0
aI96
aI267
aI418
aI614
aI659
aI799
aI1083
aI1201
aI1281
aI1455
aI1605
aI1688
aa(lp78
I0
aI79
aI212
aI482
aI583
aI681
aI839
aI897
aI1004
aI1163
aI1289
aI1396
aa(lp79
I0
aI152
aI250
aI350
aI456
aa(lp80
I0
aI85
aI170
aI223
aI380
aI461
aI553
aI631
aI684
aI766
aI893
aI954
aI989
aI1099
aa(lp81
I0
aI197
aI329
aI404
aI513
aI662
aI818
aI906
aI1033
aI1099
aI1285
aI1383
aI1531
aI1609
aI1743
aI1868
aI1950
aI2011
aI2089
aI2197
aI2290
aI2406
aI2588
aI2648
aI2733
aI2869
aI2974
aI3054
aa(lp82
I0
aI154
aI279
aI424
aI601
aI711
aI873
aI1074
aI1120
aI1284
aI1471
aI1594
aI2191
aI2289
aI2365
aI2495
aI2539
aa(lp83
I0
aI222
aI581
aI696
aI856
aI973
aI1071
aI1131
aI1241
aa(lp84
I0
aI224
aI344
aI394
aI477
aa(lp85
I0
aI117
aI250
aI298
aI390
aI542
aI668
aI775
aI880
aI993
aI1023
aI1124
aI1240
aa(lp86
I0
aI165
aI312
aI495
aI685
aI764
aI912
aI1134
aI1213
aI1423
aI1648
aI1783
aa(lp87
I0
aI176
aI407
aI513
aI653
aI807
aI912
aI1091
aI1289
aI1402
aI1571
aI1734
aI1871
aI2040
aI2176
aI2290
aa(lp88
I0
aI249
aI694
aI785
aI1010
aI1176
aI1258
aI1376
aI1547
aI1650
aI1898
aI1967
aI2125
aI2208
aI2295
aI2464
aI2653
aI2864
aI2922
aI3420
aa(lp89
I0
aI163
aI255
aI413
aI517
aI674
aI785
aa(lp90
I0
aI131
aI190
aI291
aI455
aI517
aI570
aI646
aa(lp91
I0
aI132
aI270
aI392
aI479
aI683
aI814
aI990
aI1143
aI1220
aI1386
aI1479
aI1542
aI1672
aI1746
aI1844
aI1961
aI2044
aa(lp92
I0
aI135
aI249
aI414
aI575
aI780
aI927
aI1088
aI1264
aI1414
aI1446
aI1583
aI1647
aa(lp93
I0
aI249
aI628
aI703
aI778
aI847
aI1049
aI1114
aI1330
aI1482
aI1641
aa(lp94
I0
aI133
aI233
aI403
aI509
aI614
aI677
aa(lp95
I0
aa(lp96
I0
aI51
aI212
aI327
aI455
aI599
aI717
aI856
aI999
aI1107
aI1258
aI1411
aI1548
aI1628
aI1788
aI1933
aI2078
aa(lp97
I0
aI76
aI201
aI328
aI452
aa(lp98
I0
aI152
aI319
aI537
aI649
aI825
aI933
aI1007
aI1158
aI1259
aI1335
aI1464
aI1496
aa(lp99
I0
aI152
aI270
aI337
aI447
aI535
aI651
aI841
aI901
aI968
aI1067
aI1225
aI1336
aI1407
aI1472
aI1557
aI1655
aI1777
aa(lp100
I0
aI71
aI241
aI615
aI705
aI883
aI1066
aI1254
aI1368
aI1463
aI1939
aa(lp101
I0
aI128
aI282
aI428
aI581
aI717
aI820
aI981
aa(lp102
I0
aI363
aI507
aI646
aI815
aI937
aI1120
aI1215
aI1323
aI1531
aa(lp103
I0
aI296
aI421
aI654
aI727
aa(lp104
I0
aI132
aI203
aI341
aI426
aa(lp105
I0
aI98
aI250
aI363
aI556
aI716
aI854
aI1033
aI1165
aa(lp106
I0
aI149
aI298
aI352
aI455
aI513
aI583
aI695
aI777
aI895
aI1094
aI1449
aI1551
aI1678
aI1791
aI1900
aI1998
aa(lp107
I0
aI137
aI266
aI405
aI490
aI621
aI725
aI774
aI905
aI1099
aI1179
aI1281
aI1446
aI1501
aI1688
aa(lp108
I0
aI116
aI648
aI737
aI822
aI905
aI1004
aI1076
aI1171
aI1295
aI1333
aI1410
aa(lp109
I0
aI156
aI265
aI428
aI546
aa(lp110
I0
aI145
aI283
aI369
aI500
aI601
aI766
aI880
aa(lp111
I0
aI213
aI352
aI476
aI609
aa(lp112
I0
aI109
aI176
aI356
aI459
aI588
aI713
aI797
aI972
aI1089
aI1210
aa(lp113
I0
aI172
aI416
aI557
aI873
aI950
aI1048
aI1226
aa(lp114
I0
aI159
aI314
aI401
aI508
aa(lp115
I0
aI115
aI220
aI307
aI452
aI573
aI653
aa(lp116
I0
aI223
aI442
aI666
aI890
aI1060
aI1286
aI1364
aI1562
aI1720
aI1864
aI1984
aI2093
aI2253
aa(lp117
I0
aI179
aI330
aI540
aI620
aI797
aI950
aI1052
aI1243
aI1292
aI1408
aI1592
aI1695
aI1823
aI1937
aI2055
aI2167
aI2399
aI2483
aI2602
aI2720
aI2770
aI2897
aa(lp118
I0
aI137
aI217
aI585
aI719
aI864
aI1107
aI1277
aI1387
aI1614
aI1646
aI1901
aI1984
aI2052
aI2095
aI2228
aI2386
aI2492
aI2979
aa(lp119
I0
aI179
aI306
aI410
aI576
aI627
aI730
aI864
aI985
aI1134
aI1289
aI1460
aI1554
aI1734
aI1914
aI1998
aa(lp120
I0
aI136
aI214
aI346
aI513
aa(lp121
I0
aI159
aI259
aI328
aI503
aI633
aI723
aI863
aI982
aI1153
aI1321
aI1455
aI1626
aI1864
aI1950
aI2037
aI2216
aI2390
aI2588
aa(lp122
I0
aI163
aI283
aI502
aI685
aI836
aI1053
aI1150
aI1279
aI1351
aI1532
aI1589
aI1666
aI1808
aI1940
aI2093
aI2191
aI2349
aa(lp123
I0
aI78
aI466
aI659
aI749
aI1016
aI1073
aa(lp124
I0
aI157
aI262
aI483
aI600
aI718
aI797
aI929
aa(lp125
I0
aI57
aI150
aI267
aI366
aI492
aI659
aI856
aI887
aI989
aa(lp126
I0
aI181
aI320
aI503
aI682
aI893
aI951
aI1095
aI1179
aI1244
aI1311
aI1409
aI1669
aI1777
aI1863
aI1941
aa(lp127
I0
aI102
aI229
aI393
aI485
aI578
aI670
aI842
aI1181
aI1280
aI1381
aI1471
aI1601
aI1667
aI1824
aI1943
aI2077
aI2208
aa(lp128
I0
aI492
aI660
aI782
aI896
aI1517
aa(lp129
I0
aI173
aI267
aI437
aI597
aI634
aI840
aI964
aI1107
aI1207
aa(lp130
I0
aI109
aI240
aI405
aI449
aI638
aI886
aI1012
aa(lp131
I0
aI237
aI279
aI352
aI504
aI683
aI844
aI1067
aI1266
aI1348
aI1390
aI1566
aa(lp132
I0
aI178
aI295
aI464
aI598
aI750
aI975
aI1108
aI1264
aI1370
aI1579
aI1773
aI1865
aI1948
aa(lp133
I0
aI217
aI438
aI563
aI703
aI891
aI1066
aI1166
aI1341
aI1475
aI1611
aI1726
aI1892
aI2039
aI2201
aa(lp134
I0
aI148
aI283
aI383
aI503
aI660
aI733
aI866
aI989
aI1139
aI1396
aa(lp135
I0
aI131
aI332
aa(lp136
I0
aI119
aI209
aI370
aI559
aI730
aI951
aI1043
aI1189
aI1284
aa(lp137
I0
aI226
aI413
aI525
aI674
aI808
aI892
aI1082
aI1145
aI1201
aI1334
aI1485
aa(lp138
I0
aI138
aI300
aI555
aI737
aI817
aI933
aI1132
aa(lp139
I0
aI191
aI279
aI366
aI456
aI562
aI648
aa(lp140
I0
aI185
aI450
aI584
aI660
aI773
aI917
aI994
aI1119
aI1189
aI1425
aI1586
aI1723
aI1785
aI1883
aI2093
aI2179
aa(lp141
I0
aI252
aI356
aI414
aI529
aI736
aI780
aI888
aI1035
aI1248
aI1391
aI1536
aI1776
aI1941
aI2046
aI2209
aa(lp142
I0
aI196
aI367
aI479
aI650
aI810
aI1008
aI1103
aI1271
aI1348
aI1480
aI1587
aI1678
aI1811
aI1873
aI2071
aI2128
aI2325
aI2489
aI2538
aI2725
aI2764
aI2903
aI2979
aI3105
aI3146
aI3335
aI3576
aI3682
aI3786
aI3815
aI3916
aI4041
aa(lp143
I0
aI119
aI584
aI700
aI773
aI937
aI1031
aI1274
aI1438
aI1589
aI1692
aI1861
aI2099
aI2231
aI2425
aI2642
aI2681
aI2814
aI3014
aI3137
aa(lp144
I0
aI111
aI241
aI356
aI561
aI754
aI872
aI976
aI1036
aa(lp145
I0
aI159
aI278
aI338
aI405
aI515
aI605
aa(lp146
I0
aI119
aI259
aI332
aI533
aI606
aI793
aI912
aI966
aI1035
aI1175
aI1242
aI1307
aI1456
aI1579
aa(lp147
I0
aI130
aI307
aI407
aI518
aI705
aI790
aI871
aI938
aa(lp148
I0
aI65
aI138
aI386
aI676
aI761
aI875
aI937
aI1024
aI1141
aI1249
aI1402
aI1531
aI1692
aI1858
aI1978
aa(lp149
I0
aI207
aI341
aI468
aI534
aI679
aI738
aI867
aa(lp150
I0
aI278
aI460
aI547
aa(lp151
I0
aI168
aI296
aI374
aI416
aI483
aI626
aI746
aI873
aa(lp152
I0
aI283
aI374
aI487
aI583
aI679
aI763
aI935
aI979
aI1033
aI1223
aa(lp153
I0
aI440
aI571
aI701
aI1194
aa(lp154
I0
aI269
aI382
aI482
aa(lp155
I0
aI133
aI165
aI237
aI323
aI346
aI414
aa(lp156
I0
aI159
aI229
aI354
aI456
aI565
aa(lp157
I0
aI147
aI284
aI399
aa(lp158
I0
aI187
aI278
aI491
aI635
aa(lp159
I0
aI128
aI224
aI521
aI600
aI728
aa(lp160
I0
aI97
aI265
aI431
aI496
aI600
aI710
aI816
aI1018
aI1200
aa(lp161
I0
aI138
aI228
aI594
aI675
aI768
aI818
aI985
aI1085
aI1169
aI1276
aI1336
aI1483
aI1547
aI1632
aI1713
aI1868
aI2012
aI2040
aI2142
aI2264
aa(lp162
I0
aI316
aI428
aI632
aI883
aI1000
aI1089
aI1353
aa(lp163
I0
aI71
aI291
aI396
aI489
aI866
aI1003
aI1117
aI1302
aI1427
aI1557
aI1639
aI1753
aI1850
aa(lp164
I0
aI119
aI201
aI341
aI442
aI592
aa(lp165
I0
aI83
aI201
aI420
aI551
aI651
aI770
aI825
aI925
aI1153
aI1330
aI1496
aI1627
aI1699
aI1758
aI1887
aa(lp166
I0
aI113
aI221
aI434
aI563
aI648
aI804
aI932
aI1031
aI1330
aI1436
aI1604
aI1717
aa(lp167
I0
aI560
aI790
aI1058
aI1182
aI1392
aI1554
aI1710
aa(lp168
I0
aI135
aI265
aI335
aI482
aI677
aa(lp169
I0
aI178
aa(lp170
I0
aI212
aI436
aI524
aI578
aI642
aI703
aI864
aI1141
aI1239
aI1596
aI1676
aI1912
aI2000
aa(lp171
I0
aI79
aI207
aI444
aI591
aI685
aI828
aI956
aI1268
aI1499
aI1689
aI1775
aI1898
aI2043
aa(lp172
I0
aI111
aI203
aI571
aI688
aI787
aI893
aI981
aI1158
aI1368
aI1575
aI1614
aI1740
aI1820
aI1922
aI2064
aa(lp173
I0
aI161
aI283
aI438
aI696
aI829
aI965
aI1021
aI1078
aa(lp174
I0
aI135
aI218
aI336
aI409
aI487
aI653
aI760
aI817
aa(lp175
I0
aI75
aI210
aI383
aI554
aI669
aI788
aI855
aI911
aI1195
aI1351
aI1510
aI1619
aa(lp176
I0
aI151
aI301
aI486
aI585
aI664
aI772
aI956
aI1028
aI1164
aI1325
aI1421
aI1604
aI1645
aI1733
aI1884
aI2024
aI2115
aa(lp177
I0
aI78
aI465
aI607
aI694
aI785
aI981
aI1016
aI1080
aI1267
aI1401
aI1543
aI1619
aI1805
aa(lp178
I0
aI143
aI250
aI359
aa(lp179
I0
aI215
aI387
aI607
aI706
aI1009
aa(lp180
I0
aI140
aI331
aI620
aI754
aI932
aI1146
aI1348
aI1499
aa(lp181
I0
aI96
aI297
aI542
aI744
aI922
aI1050
aI1320
aI1537
aI1692
aI1815
aI1916
aa(lp182
I0
aI118
aI385
aI588
aI669
aI1274
aa(lp183
I0
aI286
aI452
aI718
aI914
aI1133
aa(lp184
I0
aI138
aa(lp185
I0
aI98
aI219
aI294
aI464
aI590
aI690
aI796
aI917
aI1061
aa(lp186
I0
aI156
aI283
aI450
aI555
aI670
aI755
aI782
aI884
aI995
aa(lp187
I0
aI281
aI372
aa(lp188
I0
aI86
aI240
aI327
aI427
aa(lp189
I0
aI82
aI178
aI251
aI342
aI433
aI486
aI605
aI689
aI761
aI930
aa(lp190
I0
aI55
aI163
aI361
aI485
aI525
aI709
aI877
aI1030
aI1059
aI1186
aI1258
aI1380
aI1483
aI1596
aI1701
aI1814
aI1974
aa(lp191
I0
aI166
aI312
aI553
aI649
aI762
aI843
aI984
aI1121
aI1201
aI1492
aI1645
aI1790
aI1938
aa(lp192
I0
aI463
aI554
aI648
aI733
aI904
aI993
aI1063
aI1258
aI1341
aI1424
aI1647
aI2259
aa(lp193
I0
aI163
aI396
aI484
aI573
aI698
aI905
aI1058
aI1407
aI1724
aI1914
aa(lp194
I0
aI48
aI175
aI221
aI298
aI378
aI435
aI496
aI555
aI692
aa(lp195
I0
aI140
aI218
aI443
aI551
aI646
aI840
aI971
aI1163
aI1289
aI1372
aI1502
aa(lp196
I0
aI115
aI230
aI410
aI489
aI579
aI740
aI918
aI1033
aI1138
aI1191
aI1297
aI1412
aI1529
aI1615
aI1758
aI2027
aI2159
aI2269
aI2308
aa(lp197
I0
aI419
aI525
aI608
aI678
aI770
aI870
aI1040
aI1153
aI1286
aa(lp198
I0
aI146
aI259
aI372
aI503
aI638
aI728
aa(lp199
I0
aI175
aI297
aI405
aI506
aI652
aI882
aI991
aI1067
aa(lp200
I0
aI164
aI257
aI338
aI521
aI678
aI725
aI778
aI867
aI988
aI1124
aI1222
aI1393
aI1464
aI1572
aI1679
aI1726
aI1878
aI1885
aI2042
aI2212
aI2365
aI2437
aI2522
aI2581
aI2682
aa(lp201
I0
aI216
aI391
aI547
aI721
aI878
aI1004
aI1127
aI1211
aI1298
aI1338
aI1539
aI1647
aI1862
aI2108
aI2373
aa(lp202
I0
aI186
aI406
aI761
aI860
aI971
aI1060
aI1169
aI1336
aI1425
aI1505
aI1630
aI1792
aI1877
aI1956
aI2136
aI2214
aI2295
aI2449
aI2527
aI2638
aa(lp203
I0
aI174
aI303
aI372
aI484
aI614
aI705
aa(lp204
I0
aI172
aI369
aa(lp205
I0
aI221
aI367
aI427
aI599
aI756
aI801
aI885
aI1200
aa(lp206
I0
aI164
aI306
aI508
aI631
aI766
aI942
aI1194
aI1386
aI1565
aI1632
aI1728
aI1911
aI2007
aI2144
aa(lp207
I0
aI155
aI506
aI844
aI1001
aI1152
aI1283
aI1444
aa(lp208
I0
aI139
aI316
aI356
aI462
aI622
aI856
aa(lp209
I0
aI152
aI249
aI327
aI397
aa(lp210
I0
aI55
aI244
aI351
aI448
aI655
aI755
aI830
aI1000
aI1080
aI1167
aI1221
aI1316
aI1379
aI1521
aI1607
aI1658
aI1773
aI1850
aa(lp211
I0
aI244
aI397
aI565
aI744
aI828
aI926
aI972
aI1129
aI1248
aI1369
aa(lp212
I0
aI204
aI396
aI569
aI635
aI707
aI999
aI1126
aI1264
aI1438
aI1615
aa(lp213
I0
aI242
aI285
aI414
aI512
aI638
aa(lp214
I0
aI154
aI235
aI372
aI506
aI604
aI714
aI757
aa(lp215
I0
aI102
aI192
aI332
aI418
aI538
aI625
aI697
aI891
aI966
aI1077
aI1180
aI1291
aI1434
aI1544
aI1722
aa(lp216
I0
aI190
aI375
aI522
aI668
aI786
aI999
aI1046
aI1152
aI1250
aI1361
aa(lp217
I0
aI124
aI494
aI621
aI728
aI873
aI954
aI1066
aI1206
aI1303
aI1937
aa(lp218
I0
aI190
aI339
aI528
aI609
aI770
aI843
aI959
aa(lp219
I0
aI145
aI230
aI265
aI323
aI443
aI625
aI733
aI828
aI923
aI977
aa(lp220
I0
aI129
aI276
aI394
aI558
aI701
aI797
aI866
aI1023
aI1126
aI1198
aI1379
aI1563
aI1640
aI1703
aI1926
aI2025
aI2150
aI2301
aI2428
aI2527
aa(lp221
I0
aI190
aI352
aI485
aI572
aI689
aI841
aI979
aI1026
aI1170
aI1319
aI1398
aI1584
aI1748
aI1815
aI1960
aI2153
aI2300
aI2440
aI2559
aI2658
aI2800
aI2889
aI3040
aI3238
aa(lp222
I0
aI108
aI395
aI560
aI630
aI800
aI889
aI968
aI1073
aI1233
aI1321
aI1415
aI1539
aI1623
aI1749
aI1777
aI1852
aI2043
aI2113
aI2212
aI2396
aI2941
aa(lp223
I0
aI112
aI183
aI324
aI485
aI606
aI752
aI806
aI975
aI1168
aa(lp224
I0
aI213
aI281
aI459
aI552
aa(lp225
I0
aI105
aI303
aI481
aI553
aI569
aI667
aI780
aI904
aI1091
aI1268
aI1360
aI1489
aI1572
aI1695
aa(lp226
I0
aI93
aI239
aI476
aI621
aI788
aI900
aI1028
aI1171
aI1388
aI1505
aI1670
aI1754
aI1826
aI1908
aI2017
aa(lp227
I0
aI77
aI525
aI578
aI643
aI739
aI820
aI957
aI1020
aa(lp228
I0
aI99
aI184
aI301
aI400
aI540
aI644
aI752
aa(lp229
I0
aI193
aI316
aI377
aI460
aI581
aI698
aI769
aI927
aI1031
aI1132
aI1319
aI1485
aI1547
aa(lp230
I0
aI180
aI299
aI382
aI540
aI634
aI702
aI952
aI1057
aI1171
aI1268
aa(lp231
I0
aI91
aI191
aI377
aI437
aI612
aI902
aI984
aI1209
aI1292
aI1453
aI1519
aI1668
aI1751
aa(lp232
I0
aI592
aI695
aI905
aI1001
aI1133
aI1402
aI1528
aI1702
aI1868
aI2074
aI2312
aI2395
aa(lp233
I0
aI215
aI366
aI435
aI579
aI692
aI784
aI816
aa(lp234
I0
aI131
aI233
aI370
aI466
aI594
aI725
aa(lp235
I0
aI200
aI294
aI397
aI609
aI820
aI927
aI991
aI1114
aI1206
aI1297
aI1507
aa(lp236
I0
aI73
aI121
aI285
aI360
aI445
aI595
aI735
aI931
aI1057
aI1130
aI1286
aa(lp237
I0
aI139
aI297
aI462
aI698
aI871
aI994
aI1141
aI1341
aI1575
aI1754
aI1902
aI1958
aa(lp238
I0
aI242
aI282
aa(lp239
I0
aI210
aI332
aI433
aI603
aI628
aI857
aa(lp240
I0
aI124
aI333
aI515
aI603
aI700
aI895
aI1029
aI1156
aI1225
aI1344
aa(lp241
I0
aI135
aI300
aI427
aI610
aI777
aI874
aI968
aI1032
aI1194
aI1339
aI1466
aI1661
aI1778
aI1949
aI2012
aI2147
aI2256
aI2388
aI2520
aa(lp242
I0
aI486
aI680
aI833
aI929
aI1110
aI1178
aI1215
aI1362
aI1478
aa(lp243
I0
aI202
aI380
aI516
aI637
aI743
aI852
aa(lp244
I0
aI186
aI383
aI533
aI654
aI731
aI870
aI914
aI1112
aI1284
aI1438
aa(lp245
I0
aI114
aI214
aI348
aI454
aI614
aa(lp246
I0
aI140
aI279
aI336
aI529
aI648
aI777
aI868
aI1028
aI1154
aI1236
aI1379
aI1512
aI1559
aI1713
aa(lp247
I0
aI94
aI357
aI869
aI1090
aI1244
aI1376
aI1545
aI1623
aI1763
aI1969
aI2083
aI2196
aI2362
aa(lp248
I0
aI91
aI159
aI354
aI512
aI723
aa(lp249
I0
aI122
aI204
aI364
aI430
aa(lp250
I0
aI111
aI316
aI358
aa(lp251
I0
aI162
aI307
aI426
aI524
aI623
aI694
aI756
aI875
aa(lp252
I0
aI144
aI277
aI388
aI439
aI528
aI732
aI841
aa(lp253
I0
aI144
aI277
aI395
aI576
aI704
aI755
aI847
aI976
aI1095
aI1140
aI1263
aa(lp254
I0
aI154
aI304
aI374
aI437
aI630
aI741
aI854
aI1010
aa(lp255
I0
aI181
aI302
aI419
aI577
aI637
aI839
aI968
aI1117
aI1263
aa(lp256
I0
aI109
aI218
aI320
aI430
aI488
aI586
aI783
aa(lp257
I0
aI136
aI249
aI369
aI609
aI773
aI1086
aI1325
aI1499
aa(lp258
I0
aI165
aI308
aI430
aI559
aI717
aa(lp259
I0
aI141
aI265
aI351
aI461
aI603
aI734
aI805
aI910
aI1002
aI1115
aI1258
aI1487
aI1599
aI1759
aI1902
aI2000
aI2119
aI2257
aI2544
aa(lp260
I0
aI84
aI170
aI224
aI531
aI636
aI742
aI852
aI937
aI1022
aI1078
aI1172
aI1415
aI1522
aI1686
aI1743
aI1885
aI2042
aI2131
aI2245
aI2400
aI2619
aI2835
aI3175
aa(lp261
I0
aI163
aI419
aI560
aa(lp262
I0
aI90
aI267
aI388
aI466
aI596
aa(lp263
I0
aI120
aI304
aI372
aI505
aI582
aa(lp264
I0
aI265
aI401
aI446
aI571
aI652
aI763
aI862
aa(lp265
I0
aI126
aI234
aI318
aI477
aI573
aa(lp266
I0
aI99
aI131
aI238
aI325
aI376
aI582
aI792
aI842
aI929
aa(lp267
I0
aI124
aI318
aI402
aI555
aI758
aI959
aI1026
aI1137
aI1231
aI1299
aa(lp268
I0
aI72
aI154
aI208
aI336
aI458
aI519
aI670
aI733
aI838
aa(lp269
I0
aI119
aI211
aI320
aI454
aI522
aI640
aI735
aa(lp270
I0
aI108
aI246
aI400
aI592
aI710
aI776
aI947
aa(lp271
I0
aI108
aI187
aI314
aI414
aI527
aa(lp272
I0
aI117
aI197
aI289
aI340
aI540
aI690
aI808
aI891
aI944
aI1106
aI1157
aI1289
aI1473
aI1609
aI1777
aI1982
aa(lp273
I0
aI135
aI296
aI532
aI674
aa(lp274
I0
aI138
aI187
aI337
aI449
aa(lp275
I0
aI177
aI329
aa(lp276
I0
aI132
aI295
aI470
aI566
aI672
aI792
aI983
aI1022
aI1188
aa(lp277
I0
aI103
aI232
aI339
aa(lp278
I0
aa(lp279
I0
aI150
aI266
aI443
aa(lp280
I0
aI129
aI277
aI429
aI503
aI700
aI797
aI862
aa(lp281
I0
aI79
aI198
aI377
aI425
aa(lp282
I0
aI98
aI146
aI335
aI446
aI535
aI734
aI864
aI1053
aI1175
aa(lp283
I0
aI205
aI342
aI561
aI695
aI905
aI1325
aa(lp284
I0
aI101
aI257
aI366
aI666
aI1136
aI1328
aI1431
aa(lp285
I0
aI218
aI304
aI481
aI701
aI832
aa(lp286
I0
aI139
aI329
aI452
aI559
aI669
aI799
aa(lp287
I0
aI274
aI564
aI656
aI868
aI1023
aI1174
aI1384
aI1630
aI1792
aa(lp288
I0
aI235
aI364
aI494
aI615
aI681
aI838
aI961
aI1112
aI1213
aI1295
aI1451
aI1691
aI1884
aI2065
aa(lp289
I0
aI347
aI532
aI757
aI901
aI1319
aI1419
aa(lp290
I0
aI180
aI383
aI649
aa(lp291
I0
aI121
aI542
aI670
aI799
aI968
aI1217
aI1383
aI1429
aa(lp292
I0
aI153
aI407
aI476
aI831
aI974
aI1162
aa(lp293
I0
aI88
aI253
aI449
aI695
aI859
aI1106
aI1260
aI1396
aI1477
aI1510
aI1743
aI2082
aI2299
aI2488
aI2755
aI3186
aI3286
aI3379
aI3546
aa(lp294
I0
aI434
aI563
aI627
aI773
aI938
aa(lp295
I0
aI147
aI308
aa(lp296
I0
aI234
aI389
aI499
aI623
aI755
aI848
aI959
aI1082
aa(lp297
I0
aI190
aI319
aI515
aI1163
aI1247
aI1318
aI1512
aI1637
aI1781
aI1870
aa(lp298
I0
aI80
aI270
aI391
aI531
aI585
aI845
aI938
aI1068
aI1124
aI1176
aI1318
aI1396
aI1621
aI1756
aI1972
aI2039
aI2187
aI2330
aI2432
aI2571
aa(lp299
I0
aI380
aI516
aI604
aI757
aI882
aI1050
aI1204
aI1321
aa(lp300
I0
aI99
aI250
aI359
aa(lp301
I0
aI189
aI355
aI584
aa(lp302
I0
aI87
aI244
aI327
aa(lp303
I0
aI166
aI376
aI518
aI571
aI730
aa(lp304
I0
aI138
aI256
aI445
aI541
aI646
aI744
aa(lp305
I0
aI108
aI177
aI241
aI368
aI414
aI534
aI740
aI834
aI948
aI1075
aI1165
aI1258
aI1354
aa(lp306
I0
aI69
aI181
aI401
aI522
aI579
aI706
aI839
aa(lp307
I0
aI134
aI202
aI301
aI459
aI494
aI610
aI669
aI782
aI845
aI944
aI1037
aI1198
aI1275
aI1358
aI1486
aI1683
aI1746
aI1846
aI1938
aI2481
aa(lp308
I0
aI171
aI316
aa(lp309
I0
aI134
aI240
aI300
aI349
aI410
aI576
aa(lp310
I0
aI118
aI215
aI354
aI633
aa(lp311
I0
aI107
aI164
aI282
aI399
aI512
aI562
aI646
aI731
aI847
aI956
aI1002
aI1127
aa(lp312
I0
aI220
aI504
aI618
aI685
aI866
aI967
aI1035
aI1108
aI1249
aI1304
aa(lp313
I0
aI226
aI363
aa(lp314
I0
aI145
aI335
aI391
aI476
aI654
aI735
aI798
aI962
aI1052
aI1181
aI1296
aI1382
aI1477
aa(lp315
I0
aI133
aI281
aa(lp316
I0
aI118
aI179
aI243
aI367
aI433
aI511
aI584
aI727
aI823
aI901
aI1024
aI1189
aI1340
aI1428
aa(lp317
I0
aI216
aI357
aI688
aI802
aI943
aI1040
aI1083
aI1162
aI1284
aI1420
aI1577
aI1642
aI1771
aI1820
aI1925
aI2066
aa(lp318
I0
aI149
aI300
aI420
aI555
aI773
aI919
aI995
aa(lp319
I0
aI178
aI306
aI380
aI612
aI688
aI775
aI972
aI1017
aI1099
aI1180
aI1346
aI1465
aI1562
aI1670
aI1755
aa(lp320
I0
aI145
aI246
aI400
aI483
aI624
aI838
aI926
aa(lp321
I0
aI145
aI310
aI427
aI568
aI638
aI787
aI868
aI1091
aI1203
aI1282
aI1349
aI1444
aa(lp322
I0
aI64
aI170
aI220
aI631
aI737
aI830
aI941
aI997
aI1128
aI1201
aI1277
aI1418
aa(lp323
I0
aI212
aI356
aa(lp324
I0
aI239
aI382
aI731
aI814
aI905
aI1021
aI1371
aI1440
aI1595
aI1717
aI1803
aI1888
aI1973
aI2007
aI2124
aI2227
aI2341
aI2473
aI2575
aI2734
aI2810
aI2870
aI3008
aa(lp325
I0
aI124
aI224
aI298
aI409
aI489
aI568
aI622
aI669
aI756
aI867
aa(lp326
I0
aI107
aI240
aI396
aI493
aI650
aI834
aI985
aI1124
aI1302
aI1428
aI1553
aI1679
aI1802
aI1842
aI1964
aI2059
aI2161
aI2200
aI2307
aI2369
aI2493
aI2581
aI2769
aI2847
aI2946
aI3066
aI3120
aI3236
aI3376
aI3452
aI3606
aa(lp327
I0
aI147
aI263
aI366
aI733
aI847
aI900
aI1109
aI1217
aI1303
aI1401
aI1501
aI1610
aI1812
aI1855
aI1932
aI1993
aI2184
aI2294
aI2339
aI2891
aa(lp328
I0
aI100
aI165
aI204
aI346
aI424
aI522
aI651
aI799
aI925
aI1102
aI1228
aI1341
aa(lp329
I0
aI91
aI235
aI375
aI508
aI651
aI747
aI869
aI1035
aI1152
aa(lp330
I0
aI118
aI202
aI365
aI496
aI686
aI918
aI1054
aI1115
aI1266
aa(lp331
I0
aI148
aI188
aI325
aI367
aI455
aI552
aI654
aI830
aI974
aI1065
aI1210
aI1308
aI1402
aI1501
aI1600
aI1673
aI1797
aI1947
aI2009
aI2159
aI2331
aI2464
aI2561
aI2643
aI2682
aa(lp332
I0
aI226
aI630
aI737
aI874
aI942
aI1011
aI1119
aI1225
aI1344
aI1450
aI1554
aI1697
aI1772
aI1989
aI2646
aa(lp333
I0
aI135
aI290
aI400
aI510
aa(lp334
I0
aI33
aI119
aI233
aI350
aI429
aI551
aI744
aI920
aI1139
aI1243
aI1338
aI1454
aI1552
aI1658
aI1811
aI1901
aa(lp335
I0
aI131
aI342
aI378
aI501
aI626
aa(lp336
I0
aI186
aI302
aI363
aI473
aI573
aI703
aI767
aI858
aI917
aI1037
aI1098
aI1191
aI1447
aI1615
aI1701
aa(lp337
I0
aI105
aI171
aI252
aI704
aI806
aI948
aI1026
aI1132
aI1616
aa(lp338
I0
aI83
aI164
aI232
aa(lp339
I0
aI230
aI351
aI534
aI674
aI823
aI889
aI1016
aI1115
aI1196
aI1382
aI1505
aI1595
aI1831
aI1930
aa(lp340
I0
aI63
aI175
aI252
aI366
aI543
aI616
aI766
aI946
aa(lp341
I0
aI177
aI302
aI364
aI494
aI720
aI889
aI957
aI1064
aI1110
aI1254
aI1390
aI1551
aI1619
aI1704
aI1775
aI1913
aa(lp342
I0
aI204
aI253
aI330
aI622
aI722
aI908
aI1055
aI1175
aI1347
aI1479
aI1531
aI1695
aI1803
aI1977
aI2589
aa(lp343
I0
aI120
aI191
aI318
aI498
aI558
aI654
aI691
aI763
aa(lp344
I0
aI190
aI368
aI568
aI719
aI815
aI939
aI1046
aI1189
aI1275
aI1414
aI1508
aI1693
aI1753
aI1925
aI1989
aI2066
aI2155
aI2274
aI2385
aI2552
aI2720
aI2852
aI3023
aI3134
aa(lp345
I0
aI192
aI402
aI513
aI675
aI753
aa(lp346
I0
aI158
aI344
aI429
aI544
aI608
aI668
aI739
aI794
aI994
aI1051
aI1199
aI1405
aI1519
aI1621
aI1678
aa(lp347
I0
aI115
aI210
aI613
aI715
aI842
aI936
aI1056
aI1143
aI1368
aI1510
aI1565
aI2095
aa(lp348
I0
aI125
aI216
aI296
aI425
aI570
aI709
aI783
aI905
aI1059
aa(lp349
I0
aI86
aI230
aI354
aI517
aI690
aa(lp350
I0
aI105
aI265
aI423
aI526
aI683
aI776
aa(lp351
I0
aI94
aI223
aI327
aI460
aI610
aI725
aI851
aI950
aI1108
aI1190
aI1330
aI1636
aI1793
aI1941
aI2039
aI2200
aI2338
aI2492
aI2604
aI2696
aa(lp352
I0
aI186
aI377
aI652
aI849
aI944
aI1074
aI1240
aI1411
aI1521
aI1642
aI1794
aI1912
aI1948
aI2152
aI2248
aI2750
aa(lp353
I0
aI132
aI490
aI702
aI785
aI1046
aa(lp354
I0
aI155
aI293
aI421
aI493
aI609
aI650
aI733
aI781
aI942
aI1018
aa(lp355
I0
aI169
aI367
aI518
aI615
aI679
aI832
aI878
aI1001
aI1116
aI1184
aI1379
aI1502
aI1597
aI1659
aI1792
aI1911
aI2032
aI2246
aI2309
aI2473
aI2588
aI2675
aI2881
aa(lp356
I0
aI169
aI328
aI415
aI529
aI585
aI631
aI739
aI985
aI1176
aI1262
aI1434
aI1575
aI1672
aa(lp357
I0
aI77
aI183
aI226
aI650
aI703
aI823
aI929
aI1049
aI1246
aI1420
aI1499
aI1744
aI1839
aI2003
aI2101
aI2256
aI2389
aI2461
aI2585
aI2709
aI3254
aa(lp358
I0
aI164
aI285
aI419
aI533
aa(lp359
I0
aI145
aI287
aI486
aI618
aI750
aI812
aI1003
aI1031
aI1151
aI1368
aI1553
aI1751
aI1832
aI1898
aI2001
aa(lp360
I0
aI112
aI259
aI399
aI609
aI867
aI972
aI1099
aa(lp361
I0
aI136
aI228
aI353
aI468
aI604
aI724
aI853
aI947
aI1098
aI1291
aI1478
aI1601
aI1702
aI1766
aI1909
aI2000
aI2076
aI2116
aa(lp362
I0
aI211
aI284
aI346
aI687
aI801
aI923
aI1092
aI1233
aI1326
aI1465
aa(lp363
I0
aI219
aI431
aI558
aI731
aI824
aI946
aI1101
aa(lp364
I0
aI110
aI205
aI392
aI453
aI555
aI646
aI708
aI792
aI971
aI1084
aI1203
aI1247
aI1345
aI1586
aI1702
aa(lp365
I0
aI170
aI355
aI486
aI658
aI823
aI927
aI1082
aI1269
aI1405
aI1479
aI1616
aI1723
aa(lp366
I0
aI158
aI316
aI390
aI496
aI649
aI718
aI811
aI922
aa(lp367
I0
aI143
aI509
aI625
aI782
aI967
aI1053
aI1198
aI1284
aI1432
aI1495
aI1631
aa(lp368
I0
aI209
aI309
aI579
aa(lp369
I0
aI98
aI190
aI391
aI534
aI672
aI880
aI941
aI1049
aI1147
aI1272
aI1440
aI1555
aI1670
aa(lp370
I0
aI188
aI356
aI516
aI629
aI911
aa(lp371
I0
aI111
aI205
aI348
aI467
aI601
aI676
aI816
aI1000
aI1087
aI1276
aI1406
aI1551
aI1678
aI1828
aI1933
aI2011
aI2145
aI2252
aI2300
aI2384
aa(lp372
I0
aI108
aI201
aI307
aI804
aI952
aI1028
aI1140
aI1202
aI1381
aI1475
aI1619
aI1668
aI1767
aI2450
aa(lp373
I0
aI171
aI362
aI414
aI553
aI710
aI855
aI970
aI1090
aI1179
aI1343
aa(lp374
I0
aI99
aI165
aI311
aI482
aI560
aI637
aI737
aI853
aI949
aI1156
aa(lp375
I0
aI129
aI340
aI482
aI591
aI652
aI898
aI985
aI1161
aa(lp376
I0
aI204
aI320
aI483
aI592
aI678
aI803
aI1132
aI1312
aI1427
aI1582
aI1971
aI2101
aI2202
aI2318
aI2502
aI2626
aI2710
aI2832
aI2974
aI3126
aI3310
aa(lp377
I0
aI228
aI423
aI555
aI1036
aI1125
aI1318
aI1450
aI1725
aI1916
aI2106
aI2186
aI2315
aI2463
aI2516
aI2687
aI2774
aI2850
aI2900
aI3109
aI3217
aI3306
aI3462
aI3536
aI3664
aI3813
aI3889
aI4503
aa(lp378
I0
aI130
aI224
aI359
aI489
aa(lp379
I0
aI37
aI192
aI297
aI462
aI549
aI677
aI762
aI948
aI1119
aI1178
aI1294
aI1480
aI1598
aI1695
aa(lp380
I0
aI195
aI395
aI459
aI614
aI713
aI847
aI934
aI1029
aI1100
aI1356
aI1458
aI1515
aI1636
aI1777
aI1949
aI2006
aI2202
aI2305
aa(lp381
I0
aI52
aI249
aI348
aI474
aI629
aI795
aI873
aI948
aI1095
aI1214
aI1314
aI1819
aa(lp382
I0
aI114
aI279
aI393
aI540
aI644
aI769
aI956
aI1027
aa(lp383
I0
aI135
aI278
aI361
aI448
aI547
aI654
aI737
aI891
aI1009
aI1140
aI1175
aa(lp384
I0
aI129
aI256
aI320
aI480
aI575
aI676
aI839
aI889
aI1006
aI1293
aI1480
aI1640
aI1708
aI1777
aI1850
aI1992
aI2084
aI2138
aI2292
aa(lp385
I0
aI137
aI250
aI415
aI596
aI712
aI984
aI1138
aI1258
aI1349
aI1481
aI1667
aI1865
aI1982
aI2108
aI2314
aI2582
aI2684
aI2737
aI2815
aI2990
aI3117
aI3270
aI3395
aa(lp386
I0
aI108
aI393
aI520
aI618
aI833
aI1033
aI1139
aI1253
aI1394
aI1484
aI1599
aI1657
aI1737
aI1881
aI2042
aI2233
aI2300
aI2416
aI2532
aa(lp387
I0
aI132
aI219
aI439
aI626
aI751
aI876
aI959
aa(lp388
I0
aI212
aI352
aI557
aI655
aI795
aI939
aI1026
aI1116
aI1205
aI1346
aa(lp389
I0
aI242
aI460
aI566
aI747
aI879
aI1029
aI1162
aa(lp390
I0
aI75
aI178
aI267
aI384
aI489
aI602
aI716
aI919
aI1055
aI1131
aI1235
aI1366
aI1505
aI1612
aa(lp391
I0
aI114
aI224
aI332
aI753
aI807
aI928
aI1049
aI1179
aI1271
aI1340
aI1464
aI1736
aI1902
aI2573
aa(lp392
I0
aI83
aI242
aI357
aI451
aI633
aI772
aI841
aa(lp393
I0
aI118
aI305
aI436
aI495
aI711
aI846
aI1019
aI1213
aI1351
aI1424
aI1505
aI1606
aI1817
aI1931
aI2060
aI2186
aI2296
aI2348
aI2426
aI2672
aI2771
aI2891
aI3079
aI3272
aa(lp394
I0
aI171
aI290
aI419
aI587
aI691
aI969
aa(lp395
I0
aI134
aI207
aI400
aI486
aI598
aI684
aI809
aI971
aI1054
aI1222
aI1347
aI1436
aI1592
aI1711
aI1807
aI1962
aI2038
aI2261
aI2425
aa(lp396
I0
aI79
aI117
aI295
aI700
aI814
aI959
aI1073
aI1171
aI1262
aI1343
aI1479
aI1638
aI1747
aI1883
aI1978
aI2182
aI2289
aI2415
aI2511
aI2620
aI2724
aI2893
aI3078
aa(lp397
I0
aI232
aI515
aI608
aI695
aI784
aI943
aI1060
aa(lp398
I0
aI137
aI286
aI644
aI766
aI967
aI1062
aI1131
aI1240
aI1284
aI1311
aI1504
aI1681
aa(lp399
I0
aI136
aI291
aI483
aI702
aI830
aI983
aI1165
aa(lp400
I0
aI183
aI335
aI382
aI611
aI697
aI922
aI1038
aI1129
aI1175
aI1399
aI1578
aI1732
aI1850
aI1942
aI2109
aI2252
aa(lp401
I0
aI115
aI614
aI693
aI851
aI963
aI1443
aa(lp402
I0
aI169
aI249
aI368
aI521
aI585
aa(lp403
I0
aI174
aI310
aI401
aI507
aI643
aI834
aI922
aI1105
aI1230
aI1464
aI1639
aI1749
aa(lp404
I0
aI170
aI281
aI427
aI531
aI612
aI835
aI1004
aI1095
aa(lp405
I0
aI160
aI275
aa(lp406
I0
aI185
aI340
aI830
aI947
aI1285
aI1387
aI1475
aI1626
aa(lp407
I0
aI114
aI252
aI389
aI510
aI575
aI687
aI845
aI995
aI1149
aI1280
aa(lp408
I0
aI94
aI252
aI350
aI498
aI602
aI742
aI901
aI970
aI1109
aI1289
aI1502
aI1641
aI1828
aI2123
aa(lp409
I0
aI118
aI282
aI408
aI475
aI746
aa(lp410
I0
aI98
aI210
aI309
aI534
aI688
aI797
aI1024
aI1161
aI1423
aI1576
aI1687
aI1771
aI1814
aI1921
aa(lp411
I0
aI124
aI181
aI279
aI667
aI781
aI889
aI971
aI1046
aI1154
aI1230
aI1325
aI1418
aI1536
aa(lp412
I0
aI111
aI241
aI305
aI513
aI599
aI742
aa(lp413
I0
aI200
aI407
aI628
aI776
aI903
aI1038
aI1258
aa(lp414
I0
aI132
aI327
aI473
aI513
aI641
aI814
aI1005
aI1096
aI1208
aI1374
aI1476
aI1673
aI1733
aI1825
aI1897
aI2060
aI2181
aI2274
aa(lp415
I0
aI147
aI279
aI441
aI560
aI738
aI829
aI998
aI1141
aI1219
aI1302
aI1402
aI1531
aI1608
aI1724
aI1899
aI2049
aI2195
aI2354
aI2438
aI2531
aI2668
aa(lp416
I0
aI172
aI202
aI503
aI904
aI993
aI1107
aI1228
aI1336
aI1504
aI1652
aI1768
aI1971
aI2091
aI2250
aI2378
aI2582
aI2775
aI3372
aa(lp417
I0
aI90
aI216
aI364
aa(lp418
I0
aI139
aI239
aI294
aI436
aI491
aI591
aI705
aI799
aI899
aa(lp419
I0
aI107
aI170
aI348
aI385
aI539
aa(lp420
I0
aI157
aI262
aI390
aI550
aI668
aI776
aI881
aI964
aI1023
aI1085
aI1207
aI1396
aI1515
aa(lp421
I0
aI56
aI233
aI289
aI549
aI611
aI643
aI784
aI893
aI957
aI1046
aI1199
aI1244
aI1304
aI1478
aI1662
aI2317
aa(lp422
I0
aI240
aI385
aI583
aI759
aa(lp423
I0
aI118
aI305
aI463
aa(lp424
I0
aI174
aI307
aI498
aI585
aI716
aI802
aI864
aI1023
aI1147
aI1253
aI1518
aI1638
aI1769
aI1910
aI2073
aI2253
aa(lp425
I0
aI85
aI218
aI330
aI408
aI612
aI776
aI958
aI1115
aI1224
aI1319
aI1501
aI1620
aI1720
aI1788
aI1897
aI1975
aI2105
aa(lp426
I0
aI233
aI345
aI409
aI527
aI671
aI763
aa(lp427
I0
aI95
aI180
aI329
aI417
aI528
aI628
aI786
aI906
aI1095
aI1221
aI1320
aI1461
aI1557
aI1659
aI1750
aI1813
aI1928
aI2030
aI2176
aa(lp428
I0
aI115
aI298
aI364
aI504
aI609
aI808
aI961
aI1046
aI1156
aI1271
aI1472
aI1564
aI1817
aa(lp429
I0
aI98
aI181
aI360
aI461
aI587
aI635
aI702
aI861
aI1066
aI1158
aI1302
aI1426
aI1564
aa(lp430
I0
aI467
aI588
aI653
aI835
aI1368
aa(lp431
I0
aI164
aI310
aI392
aI495
aa(lp432
I0
aI120
aI189
aI234
aI318
aI385
aI547
aI628
aI659
aa(lp433
I0
aI145
aI254
aI479
aI723
aI808
aI888
aI1009
aI1198
aI1320
aI1377
aI1492
aI1560
aI1651
aa(lp434
I0
aI128
aI236
aI458
aI556
aI579
aI745
aI908
aI1024
aI1198
aI1290
aI1373
aa(lp435
I0
aI379
aI575
aI696
aI832
aI1393
aa(lp436
I0
aI167
aI232
aI319
aI445
aI554
aa(lp437
I0
aI115
aI210
aI416
aI548
aI676
aI795
aI1021
aI1145
aI1253
aa(lp438
I0
aI113
aI314
aI454
aI547
aI666
aI796
aI885
aa(lp439
I0
aI165
aI252
aI343
aI410
aI658
aI743
aI852
aI941
aI1125
aI1260
aI1373
aI1496
aI1677
aI1814
aI1892
aI1934
aI2013
aI2191
aI2263
aI2358
aa(lp440
I0
aI124
aI229
aI672
aI786
aI905
aI1081
aI1210
aI1339
aI1524
aI1768
aI1834
aI1933
aI2062
aI2203
aI2310
aa(lp441
I0
aI152
aI303
aa(lp442
I0
aI90
aI162
aI245
aI457
aI594
aI885
aI930
aI1105
aI1330
aI1438
aI1504
aI1607
aa(lp443
I0
aI139
aI327
aI401
aI545
aI666
aI797
aI937
aI1135
aI1259
aI1407
aI1546
aa(lp444
I0
aI223
aI312
aI443
aI551
aI643
aI683
aa(lp445
I0
aI102
aI143
aI263
aI325
aI672
aI786
aI1009
aI1122
aI1204
aI1271
aI1370
aI1511
aI1759
aa(lp446
I0
aI119
aI269
aI437
aI583
aI662
aI689
aa(lp447
I0
aI215
aI345
aI470
aI659
aI749
aI869
aI986
aI1108
aI1360
aI1469
aI1600
aI1743
aI1892
aI1978
aI2158
aI2211
aa(lp448
I0
aI134
aI383
aI594
aI688
aI819
aI992
aI1131
aI1282
aI1427
aI1563
aI1683
aI1871
aI1981
aI2095
aI2287
aI2486
aI2591
aI2740
aI2887
aI3011
aa(lp449
I0
aI166
aI439
aI551
aI695
aI863
aI1082
aI1175
aI1240
aI1383
aI1503
aI1664
aI1725
aI1933
aI2071
aa(lp450
I0
aI205
aI314
aI606
aI715
aI902
aI1043
aI1163
aI1296
aI1479
aI1609
aI1730
aI1890
aI2023
aI2183
aI2281
aI2321
aI2416
aI2507
aI2616
aI2770
aI3540
aa(lp451
I0
aI201
aI356
aI465
aa(lp452
I0
aI132
aI382
aI447
aI620
aI706
aI840
aI882
aI1150
aI1243
aI1496
aI1596
aI1667
aa(lp453
I0
aI152
aI222
aI365
aI482
aI596
aI727
aI836
aI994
aa(lp454
I0
aI158
aI198
aI566
aI671
aI990
aI1131
aI1226
aI1334
aa(lp455
I0
aI211
aI362
aI581
aa(lp456
I0
aI176
aI312
aI474
aI672
aI803
aI989
aI1282
aI1405
aI1568
aI1715
aa(lp457
I0
aI150
aI286
aI396
aI724
aI802
aI887
aI1057
aa(lp458
I0
aI89
aI134
aI293
aI387
aI467
aI570
aI704
aI779
aI941
aI1129
aI1178
aI1309
aI1389
aI1497
aI1543
aI1632
aI1772
aI1930
aa(lp459
I0
aI125
aI332
aI514
aI847
aI947
aI1075
aI1163
aI1335
aI1411
aI1539
aa(lp460
I0
aI88
aI293
aI383
aI528
aI653
aI738
aa(lp461
I0
aI113
aI235
aI336
aI478
aI682
aI783
aI893
aI1150
aI1310
aI1405
aa(lp462
I0
aI116
aI261
aI385
aI521
aI626
aI868
aI957
aI1063
aI1128
aI1200
aI1269
aI1410
aI1628
aI1760
aI1891
aa(lp463
I0
aI142
aI251
aI335
aI454
aI635
aI851
aI1031
aI1159
aI1264
aI1393
aI1493
aI1548
aI1632
aI1689
aI1799
aI1866
aa(lp464
I0
aI121
aI152
aI603
aI809
aI891
aI1024
aI1120
aI1214
aI1346
aa(lp465
I0
aI291
aI410
aI506
aI704
aI781
aI835
aI912
aa(lp466
I0
aI187
aI317
aa(lp467
I0
aI113
aI255
aI379
aI514
aI608
aI765
aI934
aI1138
aI1298
aI1469
aI1572
aI1833
aI2044
aI2168
aI2240
aI2348
aa(lp468
I0
aI171
aI265
aI394
aI445
aI614
aI750
aI873
aI1006
aI1104
aI1180
aI1414
aa(lp469
I0
aI144
aI220
aI639
aI707
aI914
aI1073
aI1270
aI1418
aI1474
aa(lp470
I0
aI135
aI220
aI359
aI430
aI535
aI655
aa(lp471
I0
aI135
aI345
aI406
aa(lp472
I0
aI132
aI233
aI378
aI502
aI625
aI731
aI798
aI1068
aI1110
aI1314
aI1435
aI1528
aI1738
aI1866
aa(lp473
I0
aI135
aI228
aI341
aI474
aI543
aI707
aI793
aI928
aI1063
aI1207
aI1275
aI1415
aI1505
aI1600
aa(lp474
I0
aI160
aI545
aI677
aI796
aI878
aI1040
aI1113
aI1218
aI1388
aI1555
aa(lp475
I0
aI142
aI276
aI387
aa(lp476
I0
aI143
aa(lp477
I0
aI160
aI297
aI370
aI425
aI543
aI750
aI899
aI1035
aI1162
aI1256
aI1359
aI1405
aa(lp478
I0
aI66
aI205
aI379
aI529
aI670
aI736
aI863
aI1005
aI1214
aI1371
aI1421
aI1656
aI1761
aI1824
aI1952
aa(lp479
I0
aI259
aI739
aI913
aI1098
aI1229
aI1315
aI1478
aI1582
aa(lp480
I0
aI115
aI261
aI385
aI494
aI637
aa(lp481
I0
aI240
aI377
aI616
aI791
aI953
aI1131
aa(lp482
I0
aI208
aI336
aI441
aI676
aI827
aa(lp483
I0
aI92
aI152
aI264
aI437
aI545
aI603
aI823
aI905
aI958
aI1065
aI1338
aI1517
aI1541
aI1637
aI1751
aI1889
aa(lp484
I0
aI186
aI388
aI731
aI871
aI977
aI1127
aI1270
aI1340
aI1479
aI1548
aI1666
aa(lp485
I0
aI184
aI333
aI455
aI648
aI718
aa(lp486
I0
aI149
aI308
aI466
aI572
aI665
aI725
aI914
aI1020
aI1108
aa(lp487
I0
aI159
aI346
aI582
aI723
aI865
aI1028
aI1164
aI1293
aI1421
aI1529
aI1697
aI1886
aa(lp488
I0
aI182
aI319
aI470
aI574
aI680
aI848
aI976
aI1101
aI1216
aI1353
aI1592
aI1786
aI2004
aI2134
aI2275
aI2436
aI2544
aI2682
aI2790
aI2837
aI2953
aa(lp489
I0
aI175
aI420
aI695
aI960
aI1242
aI1324
aI1594
aI1704
aI1780
aI1951
aI2017
aI2350
aI2424
aI2599
aI2742
aa(lp490
I0
aI208
aI310
aI445
aa(lp491
I0
aI124
aI269
aI368
aI450
aa(lp492
I0
aI210
aI340
aI596
aI754
aI919
aa(lp493
I0
aI93
aI199
aI358
aI421
aI581
aI650
aI776
aI991
aI1171
aI1314
aI1417
aI1467
aI1609
aI1707
aI1840
aI1920
aa(lp494
I0
aI98
aI239
aI390
aI519
aI629
aI901
aI1011
aI1118
aI1185
aI1271
aI1407
aI1462
aI1514
aI1694
aI1817
aI1910
aa(lp495
I0
aI206
aI523
aI723
aa(lp496
I0
aI145
aI290
aI448
aa(lp497
I0
aI185
aI270
aI690
aI964
aa(lp498
I0
aI105
aI171
aI298
aI435
aI517
aI625
aI860
aI954
aI1082
aI1248
aI1352
aI1527
aI1681
aI1757
aI1801
aa(lp499
I0
aI107
aI255
aI323
aI451
aI553
aI874
aI1027
aI1287
aI1458
aI1525
aI1714
aI1788
aI1963
aa(lp500
I0
aI140
aI351
aI500
aI665
aI802
aI859
aI995
aI1201
aI1339
aI1515
aI1631
aI1770
aI1993
aI2103
aI2210
aI2383
aI2576
aa(lp501
I0
aI146
aI220
aI276
aI380
aI458
aa(lp502
I0
aI115
aI271
aI366
aI477
aI710
aI887
aI1023
aI1283
aI1367
aI1507
aI1691
aI1839
aI2041
aa(lp503
I0
aI231
aI337
aI529
aI726
aI821
aI918
aI1079
aI1130
aI1313
aI1398
aI1487
aI1624
aI1761
aI1876
aa(lp504
I0
aI145
aI441
aI613
aI825
aI934
aI1010
aI1181
aI1244
aI1561
aI1647
aI1822
aa(lp505
I0
aI140
aI289
aI363
aI556
aI813
aa(lp506
I0
aI199
aI252
aI455
aI603
aa(lp507
I0
aI186
aI238
aI372
aI670
aI748
aI975
aI1213
aI1338
aI1416
aI1590
aI1793
aI1912
aa(lp508
I0
aI160
aI289
aI381
aI525
aI634
aI818
aI909
aI1000
aI1217
aI1299
aI1601
aI1651
aI1804
aI1936
aI2080
aI2170
aI2282
aa(lp509
I0
aI296
aI579
aI639
aI709
aI898
aI1128
aI1301
aI1462
aI1592
aI1722
aI1917
aI2069
aI2186
aa(lp510
I0
aI261
aI564
aI633
aa(lp511
I0
aI169
aI316
aI431
aa(lp512
I0
aI102
aI241
aI339
aI445
aI627
aI699
aI851
aI929
aI1061
aI1125
aI1379
aI1570
aI1640
aI1843
aI1944
aI2061
aI2123
aa(lp513
I0
aI175
aI329
aI405
aI555
aI709
aI844
aI987
aI1149
aI1367
aI1607
aI1659
aI1713
aI1853
aa(lp514
I0
aI126
aI536
aI661
aI829
aa(lp515
I0
aI181
aI288
aI443
aI547
aI670
aI856
aa(lp516
I0
aI116
aI286
aI400
aI498
aI629
aI779
aI968
aI1077
aa(lp517
I0
aI220
aI298
aa(lp518
I0
aI141
aI333
aI511
aI617
aI791
aI857
aI1044
aI1127
aI1259
aI1424
aI1500
aI1606
aI1766
aI2076
aI2354
aI2392
aI2500
aa(lp519
I0
aI169
aI352
aI576
aI665
aa(lp520
I0
aI195
aI274
aI411
aI460
aI544
aI645
aI745
aI811
aa(lp521
I0
aI154
aI334
aI425
aI517
aI660
aI733
aI805
aI904
aI1008
aI1090
aI1285
aI1450
aI1553
aI1619
aI1668
aI1751
aI1853
aa(lp522
I0
aI62
aI211
aI360
aI473
aI562
aI610
aI748
aI896
aI1159
aI1276
aI1402
aI1480
aI1645
aI1727
aI1818
aI1881
aI2000
aI2097
aI2597
aa(lp523
I0
aI129
aI249
aI429
aI545
aI687
aa(lp524
I0
aI69
aI231
aI314
aI412
aI499
aI580
aa(lp525
I0
aI176
aI257
aI356
aI594
aI711
aI795
aI858
aI960
aI1018
aI1128
aa(lp526
I0
aI100
aI200
aI331
aI411
aI633
aI741
aI896
aI957
aI1028
aI1113
aI1239
aI1329
aI1403
aI1581
aa(lp527
I0
aI334
aI473
aI598
aI691
aI780
aI926
aI1015
aI1054
aI1200
aI1307
aI1470
aI1623
aI1694
aI1842
aa(lp528
I0
aI241
aI315
aI470
aI543
aI578
aI734
aI847
aa(lp529
I0
aI88
aI263
aI346
aI413
aI517
aI581
aI711
aI798
aa(lp530
I0
aI135
aI191
aI460
aI550
aI669
aI748
aI885
aI1034
aI1114
aI1185
aI1370
aI1504
aa(lp531
I0
aI146
aI313
aI481
aI644
aI836
aI1053
aI1126
aa(lp532
I0
aI350
aI434
aI501
aI580
aI733
aI786
aI871
aa(lp533
I0
aI124
aI208
aI360
aI535
aI655
aI807
aa(lp534
I0
aI86
aI267
aI401
aI541
aI820
aa(lp535
I0
aI236
aI364
aI668
aI832
aI991
aI1433
aI1655
aa(lp536
I0
aI99
aI449
aI696
aI945
aI1156
aI1404
aI1549
aI1720
aI2012
aa(lp537
I0
aI235
aI497
aI725
aI974
aI1122
aI1320
aa(lp538
I0
aI169
aI289
aI426
aI532
aa(lp539
I0
aI125
aI264
aI413
aI578
aI706
aI787
aI919
aI1055
aI1441
aI1615
aI1789
aI1936
aI2152
aI2246
aI2398
aI2578
aa(lp540
I0
aI247
aI393
aI502
aI595
aI763
aI937
aI1003
aI1149
aI1271
aI1381
aI1552
aI1662
aI1818
aa(lp541
I0
aI473
aI585
aI666
aI806
aI855
aI1005
aI1123
aI1254
aI1331
aI1408
aI1493
aI1585
aI1766
aI1942
aI2047
aI2213
aI2430
aa(lp542
I0
aI182
aI399
aI546
aI657
aI781
aI814
aa(lp543
I0
aI92
aI210
aI268
aI361
aI440
aI534
aI585
aI664
aI718
aI809
aa(lp544
I0
aI83
aI147
aI422
aI578
aI643
aI779
aI959
aI1058
aI1208
aa(lp545
I0
aI71
aI151
aI244
aI320
aI444
aI521
aI628
aI704
aI777
aI961
aI1108
aI1180
aI1291
aI1340
aI1456
aI1546
aI1666
aI1790
aI2398
aa(lp546
I0
aI149
aI259
aI385
aI487
aI615
aa(lp547
I0
aI133
aI258
aI302
aI417
aI514
aI597
aI819
aI925
aI994
aI1080
aa(lp548
I0
aI120
aI346
aI500
aI649
aI743
aI955
aI1104
aI1214
aI1344
aI1745
aI1886
aI2040
aI2180
aI2316
aI2426
aI2525
aI2649
aI2765
aI2962
aI3135
aI3262
aI3332
aI3431
aI3583
aa(lp549
I0
aI88
aI248
aI365
aI542
aI694
aI817
aI922
aI1094
aI1241
aI1534
aI1815
aa(lp550
I0
aI140
aI488
aI580
aI675
aI730
aI853
aI977
aI1052
aI1152
aI1203
aI1268
aI1378
aI1503
aI1646
aI1732
aI1870
aI1937
aa(lp551
I0
aI93
aI218
aI381
aI489
aI593
aa(lp552
I0
aI100
aI203
aI269
aa(lp553
I0
aI117
aI233
aI385
aI437
aI516
aI612
aI674
aI759
aI890
aI980
aI1111
aI1145
aI1312
aI1501
aI1572
aI1663
aI1787
aI1966
aI2035
aI2130
aa(lp554
I0
aI152
aI206
aI379
aI567
aI749
aI1088
aI1185
aI1293
aI1452
aI1496
aI1555
aI1709
aI1794
aI1942
aI2059
aI2214
aI2322
aI2479
aI2655
aa(lp555
I0
aI410
aI518
aI626
aI734
aI788
aI981
aI1737
aa(lp556
I0
aI59
aI233
aa(lp557
I0
aI221
aI365
aI482
aI598
aa(lp558
I0
aI209
aI337
aI408
aI575
aI767
aa(lp559
I0
aI148
aI290
aI410
aI599
aI690
aI902
aa(lp560
I0
aI178
aI395
aI537
aI746
aI930
aI1045
aI1172
aI1378
aI1587
aa(lp561
I0
aI66
aI222
aI336
aI578
aI686
aI886
aa(lp562
I0
aI94
aI183
aI251
aI361
aI451
aI542
aI604
aI706
aa(lp563
I0
aI255
aI464
aI539
aI645
aI746
aI837
aI925
aI962
aI1108
aa(lp564
I0
aI127
aI187
aI276
aI402
aI531
aI569
aI649
aI838
aI940
aI1060
aI1213
aI1431
aI1623
aI1760
aI2458
aa(lp565
I0
aI105
aI170
aI322
aI428
aI556
aa(lp566
I0
aI116
aI233
aI383
aa(lp567
I0
aI145
aI222
aI367
aI473
aI545
aI749
aI856
aI978
aI1188
aI1353
aI1427
aI1517
aI1659
aI1808
aI1900
aa(lp568
I0
aI180
aI274
aI366
aI457
aI504
aI620
aI684
aI854
aI981
aI1134
aI1248
aI1373
aI1446
aa(lp569
I0
aI430
aI551
aI699
aI773
aI886
aa(lp570
I0
aI109
aI272
aI465
aI583
aI679
aI805
aa(lp571
I0
aI167
aI360
aI519
aI596
aI696
aI797
aa(lp572
I0
aI172
aI495
aI736
aI914
aI1030
aa(lp573
I0
aI197
aI272
aI410
aI529
aI737
aI820
aI884
aI1005
aI1085
aI1216
aI1344
aI1499
aa(lp574
I0
aI139
aI271
aI422
aI573
aI794
aa(lp575
I0
aI109
aI263
aa(lp576
I0
aI165
aI373
aI447
aI529
aI647
aI728
aI828
aI862
aI874
aI988
aI1109
aI1194
aI1317
aa(lp577
I0
aI116
aI285
aI340
aa(lp578
I0
aI84
aI210
aI561
aI686
aI792
aI892
aI1006
aa(lp579
I0
aI130
aa(lp580
I0
aI84
aI140
aI245
aI395
aI522
aI592
aa(lp581
I0
aI127
aI246
aI316
aI457
aI627
aI843
aI926
aI1080
aI1206
aI1276
aa(lp582
I0
aI148
aI278
aI337
aI435
aI498
aI668
aI756
aI850
aI924
aI1005
aI1082
aI1236
aI1362
aI1486
aI2071
aa(lp583
I0
aI157
aI250
aI428
aI550
aa(lp584
I0
aI103
aI237
aI408
aI559
aI714
aI914
aI1035
aI1235
aa(lp585
I0
aI144
aI369
aI503
aI620
aa(lp586
I0
aI59
aI137
aI243
aI434
aI485
aI561
aI677
aI789
aI906
aI1032
aI1138
aI1434
aI1499
aI1603
aa(lp587
I0
aI167
aI272
aI373
aI532
aa(lp588
I0
aI151
aI273
aI405
aI533
aI645
aI690
aI1030
aI1218
aa(lp589
I0
aI243
aI512
aI615
aI776
aI852
aI1059
aI1144
aI1340
aI1447
aa(lp590
I0
aI135
aI233
aI280
aI410
aI541
aI645
aI776
aI1006
aI1173
aI1303
aa(lp591
I0
aI144
aI335
aa(lp592
I0
aI65
aI83
aI269
aI418
aI503
aI637
aI791
aI901
aI1038
aa(lp593
I0
aI174
aI293
aI388
aI424
aI581
aI779
aa(lp594
I0
aI110
aI166
aI317
aI554
aI647
aI712
aI946
aI1144
aI1222
aI1343
aI1530
aI1926
aI2072
aa(lp595
I0
aI248
aI444
aI645
aI773
aI1005
aI1044
aI1132
aI1221
aI1312
aI1348
aI1490
aI1661
aI1771
aI1881
aI2036
aa(lp596
I0
aI130
aI275
aI458
aa(lp597
I0
aI180
aI312
aI474
aI755
aI857
aI961
aI1144
aa(lp598
I0
aI228
aI363
aI505
aI785
aI961
aI1016
aI1161
aI1224
aI1290
aI1367
aa(lp599
I0
aI397
aI564
aI633
aI743
aI869
aa(lp600
I0
aI237
aI413
aI473
aI506
aI655
aI752
aa(lp601
I0
aI129
aI292
aI395
aI488
aI635
aI761
aI866
aa(lp602
I0
aI128
aI312
aI375
aI653
aI777
aI909
aI1035
aI1158
aI1358
aI1556
aI1638
aI1798
aa(lp603
I0
aI51
aI132
aI281
aI464
aI513
aI679
aI821
aI896
aI961
aI1035
aI1185
aI1222
aI1379
aI1458
aI1650
aI1740
aI2313
aa(lp604
I0
aI188
aI369
aI463
aI503
aI596
aI745
aI848
aI1062
aI1227
aa(lp605
I0
aI84
aI116
aI278
aI335
aI528
aI623
aI748
aa(lp606
I0
aI220
aI345
aI428
aI513
aI626
aI780
aI994
aI1050
aI1181
aI1320
aI1490
aI1561
aI1639
aI1747
aa(lp607
I0
aI90
aI290
aI468
aI539
aI702
aI847
aI1017
aI1168
aI1345
aI1364
aI1642
aI1746
aa(lp608
I0
aI165
aI315
aI429
aI528
aI622
aI777
aI819
aI864
aa(lp609
I0
aI101
aI326
aI474
aI566
aI679
aa(lp610
I0
aI157
aI403
aI533
aI600
aI797
aI857
aI946
aI1081
aI1269
aI1348
aI1421
aI1573
aI1741
aI1850
aI2023
aI2165
aI2347
aI2554
aI2690
aa(lp611
I0
aI100
aI176
aI279
aI381
aI425
aI623
aI775
aI873
aI980
aI1099
aI1212
aI1347
aI1466
aI1613
aa(lp612
I0
aI208
aI303
aI780
aI907
aI1140
aI1203
aI1271
aI1424
aI1641
aI1785
aI1837
aI1912
aI1984
aI2133
aI2228
aI2350
aI2552
aI2635
aa(lp613
I0
aI140
aI253
aI459
aI622
aI713
aI821
aI968
aI1142
aa(lp614
I0
aI133
aI215
aI339
aI461
aI552
aI676
aa(lp615
I0
aI92
aI209
aI423
aI659
aI762
aI884
aI1025
aI1226
aI1320
aI1517
aI1631
aI1754
aI1859
aI1979
aI2191
aI2368
aa(lp616
I0
aI231
aI308
aI517
aI713
aI869
aI1015
aI1175
aI1260
aI1374
aI1562
aI1864
aI2013
aI2149
aI2326
aI2497
aI2836
aI3028
aI3160
aI3344
aI3524
aI3683
aI3774
aI3935
aa(lp617
I0
aI221
aI380
aI557
aI801
aI903
aI954
aI1097
aI1229
aI1369
aI1431
aI1585
aI1755
aI2078
aa(lp618
I0
aI162
aI343
aI462
aI628
aI772
aI867
aa(lp619
I0
aI167
aI419
aI574
aI648
aI813
aI998
aI1114
aa(lp620
I0
aI122
aI378
aI522
aI690
aI819
aI1067
aa(lp621
I0
aI327
aI529
aI749
aI901
aI1041
aI1231
aI1480
aI1663
aI1850
aI1999
aI2726
aa(lp622
I0
aI233
aI574
aa(lp623
I0
aI44
aI162
aI329
aI451
aI584
aI705
aI816
aI916
aI1024
aI1208
aI1287
aI1384
aI1482
aI1560
aI1665
aI1750
aI1834
aI2015
aI2145
aI2226
aa(lp624
I0
aI135
aI203
aI268
aI427
aI517
aI659
aI697
aI745
aI853
aI1076
aI1259
aI1351
aI1444
aI1565
aI1628
aI1817
aI1901
aI1994
aI2073
aI2162
aa(lp625
I0
aI162
aI319
aI457
aI599
aI706
aI812
aI1107
aI1165
aI1299
aI1379
aI1490
aI1552
aI1774
aI1936
aI2131
aI2215
aa(lp626
I0
aI537
aI621
aI767
aI873
aI991
aI1092
aI1178
aI1310
aI1470
aI1590
aI1713
aI1742
aI1946
aI2030
aI2235
aI2338
aI2441
aI2572
aI3223
aa(lp627
I0
aI129
aI228
aI330
aI424
aI568
aI817
aI916
aI1021
aI1136
aI1338
aI1395
aa(lp628
I0
aI103
aI234
aI457
aI596
aa(lp629
I0
aI188
aI333
aI407
aI599
aI665
aI801
aI1146
aI1251
aI1370
aI1456
aa(lp630
I0
aI102
aI300
aI407
aI574
aI724
aI854
aI946
aI1188
aI1295
aI1368
aI1572
aI1812
aI1923
aI2192
aI2418
aI2533
aa(lp631
I0
aI198
aI302
aI366
aI501
aI720
aI808
aI901
aa(lp632
I0
aI112
aI233
aI342
aI448
aI523
aa(lp633
I0
aI100
aI171
aI275
aI399
aI481
aI615
aa(lp634
I0
aI118
aI362
aI419
aI528
aI756
aI865
aI1027
aI1247
aI1346
aI1511
aI1656
aI1704
aI1806
aI1857
aI2016
aI2146
aI2273
aa(lp635
I0
aI196
aI397
aI563
aI626
aI714
aI780
aI848
aI900
aI944
aI1050
aI1231
aI1300
aI1386
aI1457
aI1582
aa(lp636
I0
aI449
aI604
aI754
aI815
aI940
aI1019
aI1259
aI1373
aI1473
aI1635
aa(lp637
I0
aI150
aI265
aI459
aI569
aI667
aI901
aI990
aI1114
aa(lp638
I0
aI139
aI219
aI446
aI541
aI583
aI694
aI914
aI1034
aa(lp639
I0
aI113
aI316
aI508
aI677
aI853
aI925
aI1132
aI1258
aa(lp640
I0
aI221
aI437
aI613
aI785
aI906
aI1047
aI1197
aI1356
aI1516
aI1635
aI1686
aI1769
aa(lp641
I0
aI106
aI271
aI376
aI546
aI670
aI751
aI826
aI998
aI1137
aI1286
aa(lp642
I0
aI109
aI260
aI408
aI703
aI797
aI902
aI1036
aa(lp643
I0
aI119
aI223
aI289
aI446
aI593
aa(lp644
I0
aI125
aI205
aI387
aI573
aI766
aI850
aI941
aI1113
aI1213
aI1354
aI1420
aI1500
aI1642
aI1759
aI1861
aI2023
aI2108
aI2226
aI2355
aa(lp645
I0
aI243
aI383
aI460
aI511
aI629
aI736
aI891
aI1061
aI1150
aI1273
aI1363
aI1456
aa(lp646
I0
aI202
aI296
aI508
aI794
aI932
aI1382
aI1477
aI1549
aI1713
aI1836
aI1889
aI1925
aI2054
aI2184
aa(lp647
I0
aI129
aI263
aI355
aI412
aI540
aI632
aI769
aI836
aa(lp648
I0
aI201
aI344
aI419
aI581
aI664
aa(lp649
I0
aI55
aI246
aI294
aI505
aI868
aI1070
aI1144
aI1345
aI1486
aI1561
aa(lp650
I0
aI149
aI274
aI415
aI585
aI785
aI896
aI962
aI1045
aI1131
aI1247
aI1313
aI1474
aI1533
aI1653
aI1775
aa(lp651
I0
aI199
aI256
aI698
aI928
aI1067
aI1152
aI1328
aI1473
aI1626
aI1750
aI1970
aa(lp652
I0
aI208
aI361
aI455
aI497
aI807
aI877
aI975
aa(lp653
I0
aI71
aI192
aI377
aI563
aI723
aI941
aI1045
aI1223
aI1315
aa(lp654
I0
aI110
aI217
aI321
aI502
aI592
aI710
aI826
aI937
aI1029
aI1205
aI1373
aI1513
aI1628
aI1893
aI2122
aI2284
aI2441
aI2570
aI2681
aI2829
aI3048
aI3129
aI3315
aI3398
aI3504
aI3576
aI3670
aI3798
aa(lp655
I0
aI85
aI190
aI274
aI371
aI443
aI525
aI626
aI749
aI853
aI1008
aI1160
aI1224
aI1302
aI1384
aI1475
aI1567
aI1690
aI1846
aI2007
aI2149
aI2298
aa(lp656
I0
aI419
aI519
aI709
aI881
aI995
aI1035
aI1114
aI1223
aI1353
aI1559
aI2247
aI2487
aa(lp657
I0
aI130
aI233
aI412
aI548
aI656
aI741
aI847
aI1016
aI1154
aI1255
aa(lp658
I0
aI220
aI287
aI410
aI457
aI528
aI570
aI702
aI835
aI874
aI994
aI1019
aI1165
aI1246
aI1347
aa(lp659
I0
aI102
aI291
aI442
aI611
aI728
aI809
aI938
aI1062
aI1208
aI1509
aI1570
aI1635
aI1739
aI1810
aI1886
aI2074
aI2132
aI2262
aI2357
aI2529
aI2609
aI2780
aI2905
aI2995
aI3152
aI3295
aI3501
aI3597
aI3688
aI3747
aI3875
aI4087
aa(lp660
I0
aI140
aI253
aI361
aI425
aI552
aI635
aI735
aI891
aI1077
aI1288
aI1329
aI1513
aI1603
aI1727
aI1861
aI1959
aI2044
aa(lp661
I0
aI98
aI345
aI508
aI676
aI774
aI839
aI1080
aI1219
aI1268
aI1352
aI1511
aI1608
aI1681
aI1800
aI1928
aI2537
aa(lp662
I0
aI125
aI265
aI363
aI477
aI563
aI733
aI856
aI977
aI1101
aI1251
aI1303
aa(lp663
I0
aI124
aI276
aI332
aI463
aI572
aI711
aI776
aI982
aI1080
aI1234
aI1478
aa(lp664
I0
aI188
aI412
aI462
aI602
aI788
aI961
aI1198
aa(lp665
I0
aI209
aI324
aI416
aI547
aI679
aI775
aI801
aI897
aI1034
aI1136
aI1159
aI1261
aI1474
aI1553
aI1676
aI1832
aI1967
aI2075
aI2186
aI2272
aI2386
aI2568
aI3155
aa(lp666
I0
aI132
aI276
aI514
aI646
aI796
aI956
aI1042
aa(lp667
I0
aI72
aI154
aI294
aI426
aI501
aI609
aI721
aI826
aa(lp668
I0
aI164
aI282
aI357
aI473
aI576
aI892
aa(lp669
I0
aI129
aI196
aI309
aI521
aI586
aI683
aI792
aI914
aI1041
aI1160
aI1321
aI1499
aI1739
aI2283
aa(lp670
I0
aI130
aI207
aI334
aI442
aI550
aa(lp671
I0
aI213
aI279
aI544
aI674
aa(lp672
I0
aI174
aI284
aI378
aI490
aI679
aa(lp673
I0
aI105
aI257
aI295
aI424
aI620
aI764
aI887
aI1081
aI1174
aI1394
aI1459
aI1576
aI1645
aI1727
aI1861
aI1927
aI2230
aI2443
aI2648
aI2774
aI2912
aI3004
aI3065
aa(lp674
I0
aI96
aI607
aI709
aI795
aI931
aI1008
aI1147
aI1749
aa(lp675
I0
aI152
aI304
aI481
aI614
aI697
aI818
aa(lp676
I0
aI92
aI233
aI452
aI530
aI660
aI800
aI840
aI960
aa(lp677
I0
aI219
aI316
aI397
aI741
aI868
aI995
aI1095
aI1189
aI1237
aI1345
aI1442
aI1631
aa(lp678
I0
aI113
aI168
aI264
aI432
aI601
aI701
aI818
aI944
aI1113
aI1175
aI1329
aI1411
aI1609
aI1636
aI1804
aa(lp679
I0
aI538
aI617
aI705
aI812
aI887
aI1021
aI1218
aI1250
aI1343
aI1421
aI1700
aI1764
aI1883
aI1973
aI2084
aa(lp680
I0
aI121
aI208
aI326
aI458
aa(lp681
I0
aI74
aI229
aI357
aI529
aa(lp682
I0
aI141
aI279
aI406
aI554
aI666
aI794
aI941
aI1104
aI1174
aI1321
aI1480
aI1569
aI1640
aI1788
aa(lp683
I0
aI193
aI379
aI530
aI697
aI899
aI1135
aI1225
aI1380
aI1521
aI1625
aI1724
aI1875
aI1971
aI2028
aI2127
aI2256
aI2440
aI2569
aI2687
aI2802
aI2923
aa(lp684
I0
aI603
aI690
aI831
aI993
aI1223
aI1376
aa(lp685
I0
aI201
aI337
aI410
aI635
aI760
aI875
aI975
aI1099
aI1217
aI1300
aI1421
aI1565
aa(lp686
I0
aI107
aI190
aI287
aI357
aI432
aI574
aI665
aI750
aI817
aI940
aI1023
aa(lp687
I0
aI107
aI279
aI421
aI563
aI630
aI757
aI885
aI984
aI1065
aI1138
aI1242
aI1287
aI1417
aI1582
aI1690
aI1840
aI1975
aI2193
aI2332
aa(lp688
I0
aI94
aI254
aI315
aI379
aI515
aI581
aI685
aI752
aI811
aI905
aI1051
aI1115
aI1226
aI1304
aI1462
aI1511
aa(lp689
I0
aI246
aI497
aI633
aI767
aI850
aI959
aI1143
aI1225
aI1317
aI1379
aI1453
aI1625
aI1779
aI1941
aI2087
aa(lp690
I0
aI185
aI314
aI446
aI524
aI599
aI708
aa(lp691
I0
aI149
aI306
aa(lp692
I0
aI135
aI301
aI499
aI750
aI832
aI928
aI976
aI1080
aI1137
aI1271
aI1390
aI1512
aI1594
aa(lp693
I0
aI302
aI449
aI670
aI860
aa(lp694
I0
aI226
aI405
aI553
aa(lp695
I0
aI99
aI213
aI336
aI489
aI525
aI648
aI910
aI1148
aI1329
aI1553
aa(lp696
I0
aI116
aI417
aI485
aa(lp697
I0
aI96
aI174
aI348
aI433
aI549
aI685
aI1030
aI1118
aI1265
aI1366
aI1497
aI1650
aI1819
aI1908
aI2104
aI2314
aI2393
aI2482
aI2582
aI2691
aI2844
aI2940
aI3064
aI3227
aI3406
aI3530
aa(lp698
I0
aI177
aI559
aI743
aI905
aI1101
aI1141
aI1261
aI1368
aI1507
aI1572
aI1776
aI2154
aI2815
aa(lp699
I0
aI102
aI315
aI451
aI914
aI1033
aa(lp700
I0
aI202
aI392
aI447
aI632
aI760
aI842
aI956
aa(lp701
I0
aI137
aI271
aI443
aI560
aI725
aI835
aa(lp702
I0
aI181
aI318
aI424
aI530
aI698
aI814
aI943
aI1158
aI1343
aI1476
aI1640
aI2201
aa(lp703
I0
aI269
aI465
aa(lp704
I0
aI140
aI347
aa(lp705
I0
aI201
aI383
aI520
aI743
aI917
aI984
aI1154
aI1242
aI1383
aI1586
aa(lp706
I0
aI122
aI272
aI485
aI521
aI641
aI785
aI996
aI1011
aI1128
aI1236
aI1257
aa(lp707
I0
aI173
aI248
aI398
aa(lp708
I0
aI152
aI248
aI375
aI412
aI516
aI592
aI726
aI856
aI1005
aa(lp709
I0
aI101
aI185
aI368
aI419
aa(lp710
I0
aI77
aI201
aI368
aI463
aI612
aI799
aI918
aI1068
aI1223
aI1385
aa(lp711
I0
aI126
aI310
aI364
aI476
aI565
aI870
aI962
aI1125
aI1281
aI1373
aI1482
aa(lp712
I0
aI169
aI336
aa(lp713
I0
aI151
aI275
aI331
aI452
aI573
aI672
aI744
aI885
aI1040
aa(lp714
I0
aI138
aI289
aI471
aI639
aI681
aI769
aa(lp715
I0
aI160
aI262
aI399
aI529
aI593
aI685
aI811
aI851
aI1019
aI1123
aI1228
aI1329
aI1472
aI1615
aI1716
aa(lp716
I0
aI84
aI185
aI567
aI628
aI716
aI797
aI835
aI921
aI1094
aI1167
aI1360
aI1446
aI1598
aI1813
aI1907
aa(lp717
I0
aI192
aI362
aI518
aI685
aa(lp718
I0
aI134
aI362
aI417
aa(lp719
I0
aI178
aI286
aa(lp720
I0
aI174
aI283
aI376
aI530
aI618
aI738
aI938
aI987
aa(lp721
I0
aI126
aI259
aI351
aI489
aI532
aa(lp722
I0
aI147
aI275
aa(lp723
I0
aI155
aI261
aI393
aI482
aI587
aI675
aI736
aI895
aI1117
aa(lp724
I0
aI271
aI320
aI404
aI551
aI627
aI778
aa(lp725
I0
aI114
aI190
aI317
aI405
aI480
aI517
aI670
aI727
aI846
aI905
aI914
aI996
aa(lp726
I0
aI162
aI233
aI321
aI397
aI555
aI723
aI789
aI995
aI1090
aa(lp727
I0
aI66
aI175
aI279
aI406
aI577
aI636
aI780
aI843
aI1044
aI1187
aa(lp728
I0
aI116
aI316
aI400
aI545
aI787
aI907
aI1075
aI1265
aI1339
aI1537
aI1694
aI1871
aI1959
aI2095
aI2485
aI2589
aa(lp729
I0
aI99
aI234
aI353
aI521
aI590
aI694
aI858
aI1013
aI1201
aI1352
aI1474
aI1596
aI1803
aI1975
aI2098
aI2226
aI2275
aI2367
aa(lp730
I0
aI895
aI1217
aI1315
aI1490
aI1617
aI1764
aI1847
aI1986
aI2172
aI2285
aI2384
aI2565
aI3145
aa(lp731
I0
aI89
aI243
aI443
aI537
aI704
aI874
aa(lp732
I0
aI53
aI221
aI320
aI420
aI469
aI539
aI637
aI717
aI796
aI977
aI1042
aI1144
aI1262
aI1346
aI1448
aa(lp733
I0
aI188
aI446
aI532
aI791
aI1026
aI1190
aa(lp734
I0
aI123
aI336
aI506
aI664
aI811
aI961
aI1159
aI1348
aI1434
aI1581
aI1729
aI1930
aI2055
aI2201
aI2356
aI2473
aI2531
aI2718
aI2999
aI3148
aI3223
aI3420
aI3513
aI3657
aa(lp735
I0
aI240
aI635
aI829
aI973
aI1106
aI1182
aI1360
aI1472
aI1530
aI1756
aI1786
aI1807
aI1939
aI2133
aI2278
aI2354
aa(lp736
I0
aI146
aI487
aI569
aI883
aI1012
aI1166
aI1257
aI1374
aI1423
aI1507
aI1604
aa(lp737
I0
aI210
aI373
aI584
aa(lp738
I0
aI171
aI276
aI395
aI592
aI670
aI804
aa(lp739
I0
aI138
aI274
aI329
aI420
aI584
aI726
aI957
aa(lp740
I0
aI179
aI293
aI449
aI586
aa(lp741
I0
aI131
aI179
aI279
aI355
aI426
aI478
aI631
aI772
aI816
aI899
aI974
aI1083
aa(lp742
I0
aI119
aI242
aI404
aI512
aI637
aa(lp743
I0
aI190
aI249
aI312
aI404
aI559
aI715
aI847
aI964
aI1062
aI1176
aI1260
aI1399
aI1481
aI1592
aI1661
aI1745
aI1855
aI1976
aI2628
aa(lp744
I0
aI105
aI227
aI331
aI438
aI573
aI652
aI707
aa(lp745
I0
aI59
aI260
aI364
aI538
aI717
aI792
aa(lp746
I0
aI149
aI225
aI323
aI396
aI511
aI651
aI730
aI810
aI891
aa(lp747
I0
aI116
aI231
aI423
aa(lp748
I0
aI219
aa(lp749
I0
aI71
aI246
aI310
aI444
aI601
aI670
aI808
aI981
aI1095
aI1253
aI1468
aI1523
aI1727
aI1798
aI1930
aI2116
aI2200
aI2361
aI2524
aI2614
aI2754
aI2989
aI3165
aI3351
aa(lp750
I0
aI188
aI507
aI659
aI748
aI822
aI900
aI1035
aI1172
aI1236
aI1405
aI1474
aI1587
aI1726
aI1792
aa(lp751
I0
aI203
aI285
aI579
aI693
aI841
aI933
aI994
aI1077
aI1201
aI1381
aa(lp752
I0
aI82
aI271
aI716
aI864
aI934
aa(lp753
I0
aI141
aI315
aI443
aI663
aa(lp754
I0
aI66
aI222
aI343
aI517
aI598
aI690
aI885
aI1109
aI1199
aI1351
aI1533
aI1628
aI1750
aI1894
aI2051
aI2121
aI2265
aI2483
aI2637
aI2734
aI2964
aa(lp755
I0
aI167
aI357
aI468
aI546
aI747
aI951
aI1199
aI1300
aI1497
aI1559
aI1669
aI1738
aI1913
aI2029
aI2149
aI2329
aa(lp756
I0
aI189
aI542
aI624
aI853
aI997
aI1175
aI1654
aI1850
aa(lp757
I0
aI118
aI307
aI409
aI478
aI560
aa(lp758
I0
aI175
aI254
aI467
aI616
aI720
aI864
aa(lp759
I0
aI191
aI393
aI487
aI657
aI910
aI1127
aI1438
aI1621
aI1956
aI2204
aI2397
aI2579
aI2700
aI2921
aI3084
aI3198
aI3403
aI3547
aI3733
aI3919
aI4067
aI4173
aI4332
aI4565
aI4767
aI4893
aa(lp760
I0
aI83
aI257
aI365
aI454
aI663
aI748
aI944
aI993
aI1189
aI1397
aI1543
aI1666
aI1982
aI2194
aI2457
aI2575
aI2723
aI2784
aa(lp761
I0
aI164
aI340
aI404
aI529
aI684
aI892
aI1082
aI1186
aI1375
aI1572
aI1793
aI2114
aa(lp762
I0
aI177
aI336
aI420
aI599
aI694
aI824
aI956
aa(lp763
I0
aI110
aI177
aI271
aI377
aI615
aI711
aI813
aI941
aI1077
aI1265
aI1359
aa(lp764
I0
aI130
aI282
aI372
aI521
aI646
aI831
aI978
aI1061
aI1137
aI1244
aI1399
aI1452
aI1827
aI1885
aI2045
aI2178
aI2481
aI2636
aI2759
aI2857
aI3016
aI3090
aa(lp765
I0
aI187
aI379
aI570
aI648
aI744
aI854
aI965
aI1107
aI1277
aI1416
aI1480
aI1676
aI1786
aI1947
aI2042
aI2162
aI2234
aI2378
aa(lp766
I0
aI102
aI306
aI641
aI772
aI947
aI1034
aI1088
aI1137
aI1220
aI1305
aI1431
aI1625
aI1719
aI1827
aI1941
aI2014
aI2205
aI2271
aa(lp767
I0
aI93
aI302
aI414
aI547
aI653
aI827
aI958
aI1076
aI1143
aa(lp768
I0
aI162
aI296
aI360
aI481
aI663
aI796
aI965
aI1116
aI1232
aI1275
aI1385
aI1466
aa(lp769
I0
aI57
aI238
aI411
aa(lp770
I0
aI176
aI270
aI354
aI501
aI643
aI779
aI1019
aI1135
aI1279
aI1410
aI1556
aI1633
aI1719
aI1833
aa(lp771
I0
aI211
aI263
aI700
aI815
aI952
aI1129
aI1245
aI1339
aI1440
aI1519
aI1730
aI1965
aa(lp772
I0
aI195
aI295
aI531
aI632
aI666
aa(lp773
I0
aI119
aI211
aI307
aI390
aa(lp774
I0
aI167
aI286
aI401
aI632
aI722
aI764
aI844
aI912
aI1031
aI1203
aI1322
aI1711
aa(lp775
I0
aI93
aI263
aI321
aI415
aI542
aI664
aI739
aI840
aI984
aI1093
aI1220
aI1294
aa(lp776
I0
aI108
aI857
aI971
aI1113
aI1282
aI1366
aI1503
aI1628
aI1756
aI1946
aI2030
aI2235
aI2278
aI2558
aa(lp777
I0
aI124
aI250
aI389
aI457
aI628
aI703
aa(lp778
I0
aI212
aI310
aI408
aa(lp779
I0
aI164
aI383
aI506
aI605
aI794
aI960
aI1065
aa(lp780
I0
aI138
aI301
aI416
aI529
aI651
aI733
aI778
aI891
aa(lp781
I0
aI243
aI348
aI374
aI439
aI637
aI795
aI905
aI960
aa(lp782
I0
aI75
aa(lp783
I0
aI105
aI241
aI433
aI517
aI588
aI687
aI798
aI935
aI997
aa(lp784
I0
aI187
aI372
aI526
aa(lp785
I0
aI367
aI470
aI558
aI657
aI841
aa(lp786
I0
aI154
aI241
aI316
aI463
aa(lp787
I0
aI117
aI234
aI384
aI589
aI689
aa(lp788
I0
aI181
aI326
aI426
aI572
aI734
aa(lp789
I0
aI75
aI200
aI307
aI383
aI458
aI600
aI721
aI856
aI1032
aI1224
aI1384
aI1472
aI1681
aI1856
aI2172
aa(lp790
I0
aI75
aI191
aI307
aI427
aI534
aI702
aI923
aa(lp791
I0
aI185
aI325
aI519
aI632
aI711
aI764
aa(lp792
I0
aI219
aI409
aI495
aI624
aI834
aI921
aI1003
aI1191
aI1275
aI1425
aI1547
aI1595
aI1670
aI1802
aI1893
aI2027
aI2127
aI2214
aI2266
aa(lp793
I0
aI118
aI281
aI379
aI562
aI655
aI775
aI913
aI1127
aI1164
aI1309
aI1393
aI1472
aa(lp794
I0
aI435
aI553
aI714
aI850
aI961
aI1108
aI1207
aI1609
aI1875
aa(lp795
I0
aI231
aI350
aI520
aI569
aa(lp796
I0
aI121
aI246
aI331
aI429
aI566
aa(lp797
I0
aI158
aI256
aI432
aI577
aI684
aI800
aI882
aI1047
aI1338
aI1496
aI1612
aI1741
aI2138
aa(lp798
I0
aI235
aI382
aI523
aI721
aI840
aI922
aI1040
aI1218
aI1320
aI1413
aa(lp799
I0
aI188
aI368
aI574
aI718
aI780
aI849
aa(lp800
I0
aI130
aI223
aI308
aI464
aI541
aI582
aI667
aI762
aa(lp801
I0
aI116
aI247
aI328
aI525
aa(lp802
I0
aI144
aI371
aI546
aI659
aI800
aI860
aI1055
aI1187
aI1335
aI1555
aI1719
aI1920
aI2044
aI2135
aI2217
aI2767
aa(lp803
I0
aI165
aI257
aI427
aa(lp804
I0
aI142
aI252
aI448
aI585
aa(lp805
I0
aI163
aI312
aI606
aI704
aI870
aI1102
aI1220
aI1337
aI1476
aI1693
aI1765
aI1801
aI1939
aI2029
aI2169
aa(lp806
I0
aI184
aI339
aI511
aI679
aI856
aI953
aI1229
aI1426
aI1617
aI1736
aI1798
aI1933
aI2024
aI2121
aI2187
aI2386
aI2515
aI2561
aI2648
aa(lp807
I0
aI460
aI571
aI756
aI817
aI1079
aI1418
aI1655
aI1787
aa(lp808
I0
aI155
aI299
aI348
aI547
aI638
aI721
aa(lp809
I0
aI130
aa(lp810
I0
aI211
aI317
aI457
aI614
aI770
aI953
aI1082
aI1223
aI1339
aI1394
aI1510
aI1630
aI1747
aI1888
aa(lp811
I0
aI92
aI233
aI311
aI401
aI542
aI691
aI728
aI848
aa(lp812
I0
aI87
aI498
aI702
aI809
aI1008
aI1131
aI1221
aa(lp813
I0
aI195
aI268
aI394
aI457
aI494
aI658
aI717
aa(lp814
I0
aI98
aI195
aI328
aI399
aI491
aI571
aa(lp815
I0
aI109
aI223
aI358
aI519
aI679
aa(lp816
I0
aI100
aI208
aI276
aI365
aI479
aI650
aI845
aI994
aI1096
aI1242
aI1406
aI1493
aI1699
aI1798
aa(lp817
I0
aI102
aI214
aI288
aI359
aa(lp818
I0
aI120
aI308
aI464
aI632
aI705
aa(lp819
I0
aI113
aI175
aI318
aI443
aI545
aI620
aI771
aI889
aI1090
aI1144
aI1231
aI1295
aI1434
aI1509
aa(lp820
I0
aI175
aI337
aI419
aI551
aI658
aI735
aI771
aI928
aI985
aI1074
aI1181
aI1339
aI1416
aI1520
aa(lp821
I0
aI146
aI403
aI512
aI624
aI735
aI891
aI997
aI1128
aI1254
aI1379
aI1509
aI1592
aI1667
aI2306
aa(lp822
I0
aI119
aI226
aI365
aI547
aI648
aI822
aa(lp823
I0
aI108
aI195
aI272
aI391
aI449
aI564
aI598
aI660
aa(lp824
I0
aI116
aI316
aI444
aI594
aI685
aI891
aI1046
aI1185
aI1256
aI1462
aI1656
aI1774
aI1888
aI1969
aa(lp825
I0
aI167
aI263
aI360
aI439
aI514
aI671
aI812
aI897
aa(lp826
I0
aI493
aI582
aI639
aI765
aI934
aI1010
aI1167
aI1305
aI1475
aI1579
aI1676
aI1877
aa(lp827
I0
aI102
aI237
aI360
aI419
aI539
aI658
aI741
aa(lp828
I0
aI210
aI275
aI410
aa(lp829
I0
aI162
aI348
aI522
aI751
aI899
aI1028
aa(lp830
I0
aI140
aI261
aI377
aI457
aI549
aI655
aI781
aI896
aa(lp831
I0
aI218
aI353
aI500
aI681
aI835
aa(lp832
I0
aI59
aI215
aI343
aI433
aI527
aa(lp833
I0
aI136
aI217
aI364
aI537
aI634
aI811
aa(lp834
I0
aI150
aI238
aI278
aI403
aI493
aI645
aI843
aI968
aa(lp835
I0
aI315
aI475
aI586
aI720
aa(lp836
I0
aI190
aI318
aI489
aI543
aa(lp837
I0
aI116
aI260
aI372
aI673
aI763
aI986
aI1112
aI1199
aI1348
aI1419
aI1453
aI1591
aI1714
aI1813
aI1912
aI2046
aI2120
aI2210
aa(lp838
I0
aI130
aI271
aI505
aI748
aI863
aI1049
aI1212
aI1408
aI1541
aI1780
aI1922
aI2015
aI2131
aI2179
aa(lp839
I0
aI68
aI272
aI647
aI785
aI925
aI1088
aI1212
aI1287
aa(lp840
I0
aI142
aI341
aI514
aI756
aI914
aI1002
aI1181
aI1359
aI1414
aI1580
aI1652
aa(lp841
I0
aI107
aI181
aI333
aa(lp842
I0
aI75
aI219
aI322
aI440
aI519
aa(lp843
I0
aI110
aI188
aI282
aI361
aI440
aI569
aI671
aI709
aa(lp844
I0
aI310
aI403
aI486
aI601
aI666
aI845
aI965
aa(lp845
I0
aI71
aI168
aI267
aa(lp846
I0
aI84
aI259
aI466
aI598
aI706
aa(lp847
I0
aI114
aI395
aI565
aI600
aI639
aI742
aI923
aI1097
aI1223
aa(lp848
I0
aI118
aI155
aI272
aI368
aI499
aI566
aI625
aI840
aI925
aI1008
aI1174
aI1318
aI1467
aI1551
aI1720
aI1843
aI1925
aI2497
aa(lp849
I0
aI133
aI251
aI358
aa(lp850
I0
aI63
aI379
aI562
aI672
aI734
aI815
aa(lp851
I0
aI126
aI275
aI491
aI645
aI716
aI836
aI963
aI1001
aI1181
aI1360
aI1396
aI1573
aI1653
aa(lp852
I0
aI127
aI257
aI291
aI440
aI641
aI787
aI987
aI1099
aI1249
aI1347
aI1446
aI1571
aI1736
aI1863
aI2121
aa(lp853
I0
aI40
aI74
aI231
aI401
aI494
aI649
aa(lp854
I0
aI128
aI266
aI447
aa(lp855
I0
aI154
aI333
aI414
aI495
aI669
aI838
aI999
aI1144
aa(lp856
I0
aI141
aI290
aI410
aI461
aI723
aI908
aI992
aI1079
aa(lp857
I0
aI121
aI274
aI423
aI529
aI605
aa(lp858
I0
aI112
aI216
aI409
aI472
aI570
aI688
aI825
aI853
aa(lp859
I0
aI197
aI408
aI603
aI705
aI840
aI1003
aI1227
aa(lp860
I0
aI158
aI334
aI450
aI517
aI664
aI818
aI1036
aI1221
aI1360
aI1404
aI1510
aI1701
aI1778
aI1951
aI2036
aI2158
aa(lp861
I0
aI93
aI545
aI640
aI704
aI805
aI956
aI1139
aI1228
aI1336
aI1417
aI1535
aI1613
aI1683
aI1767
aI1881
aI2026
aI2184
aI2286
aa(lp862
I0
aI130
aI255
aI388
aI473
aI564
aI634
aa(lp863
I0
aI187
aI293
aI448
aI575
aI643
aa(lp864
I0
aI207
aI352
aI484
aI775
aI953
aI1081
aI1157
aI1336
aa(lp865
I0
aI127
aI205
aI254
aI342
aI502
aI570
aI652
aI764
aI858
aI992
aI1089
aa(lp866
I0
aI149
aI276
aI344
aa(lp867
I0
aI252
aI348
aI531
aI624
aI696
aa(lp868
I0
aI80
aI175
aI366
aI431
aI547
aI696
aI791
aI1310
aI1405
aI1486
aI1636
aI1791
aI1914
aI2030
aI2296
aI2428
aI2491
aI2748
aI2898
aI3000
aI3092
aa(lp869
I0
aI128
aI314
aI487
aI516
aI660
aI717
aI814
aI997
aI1207
aI1328
aI1460
aI1614
aI1788
aI1855
aa(lp870
I0
aI98
aI228
aI492
aI661
aI756
aI937
aI1101
aI1248
aI1366
aI1461
aa(lp871
I0
aI90
aI189
aI278
aI334
aa(lp872
I0
aI101
aI148
aI269
aI362
aI428
aI467
aI608
aa(lp873
I0
aI86
aI194
aI282
aI566
aI716
aI990
aa(lp874
I0
aI137
aI310
aI435
aI487
aI543
aI685
aI789
aI915
aI978
aI1079
aI1169
aI1354
aI1478
aa(lp875
I0
aI118
aI193
aI284
aI343
aI450
aI533
aI596
aI635
aI782
aI1007
aa(lp876
I0
aI136
aI296
aI332
aI408
aI531
aI630
aI727
aI905
aa(lp877
I0
aI183
aI318
aI432
aI651
aa(lp878
I0
aI125
aI260
aI400
aI486
aI612
aI701
aI837
aI1018
aI1707
aa(lp879
I0
aI183
aI266
aI542
aI642
aI841
aa(lp880
I0
aI87
aI218
aI302
aI430
aI545
aI639
aI736
aI847
aI945
aI995
aa(lp881
I0
aI167
aI336
aI407
aI518
aI670
aI742
aI835
aI941
aI1045
aI1153
aI1318
aI1416
aI1582
aI1685
aI1946
aI2078
aI2194
aI2559
aI2611
aI2706
aI2841
aI3067
aI3206
aI3377
aI3441
aI3552
aa(lp882
I0
aI122
aI297
aI434
aI622
aI791
aI888
aI1012
aI1129
aI1254
aI1385
aI1492
aI1628
aI1735
aI1843
aI1951
aI2061
aI2167
aa(lp883
I0
aI128
aI158
aI521
aI735
aI866
aI954
aI1109
aI1207
aI1357
aI1467
aI1657
aI1772
aI1883
aI1984
aa(lp884
I0
aI152
aI292
aI438
aa(lp885
I0
aI169
aI271
aI339
aa(lp886
I0
aI99
aI243
aI409
aI486
aI566
aI686
aI831
aI1249
aI1313
aI1502
aI1617
aI1759
aa(lp887
I0
aI118
aI212
aI304
aI497
aI601
aI702
aI903
aI936
aI1124
aI1205
aa(lp888
I0
aI64
aI152
aI577
aI746
aI808
aI945
aI1070
aI1213
aI1260
aI1349
aI1466
aI1552
aI1699
aI1810
aI2706
aa(lp889
I0
aI161
aI322
aa(lp890
I0
aI162
aI250
aI407
aI526
aI680
aI781
aI835
aa(lp891
I0
aI211
aI315
aI578
aI712
aI852
aI1268
aI1428
aa(lp892
I0
aI171
aI352
aI490
aI770
aI866
aI1032
aI1563
aI1569
aI1816
aI2467
aa(lp893
I0
aI161
aI309
aI427
aI557
aI835
aI1032
aa(lp894
I0
aI237
aI321
aI482
aI673
aI786
aI964
aa(lp895
I0
aI349
aI455
aI685
aI947
aI1209
aI1420
aI1549
aa(lp896
I0
aI181
aI413
aI561
aI795
aI983
aI1193
aI1376
aI1493
aI1640
aI1762
aI2012
aI2138
aI2413
aI2656
aI2885
aa(lp897
I0
aI154
aI473
aI649
aI776
aI951
aI1104
aa(lp898
I0
aI178
aI266
aI388
aI519
aI589
aI707
aI872
aa(lp899
I0
aI180
aI234
aI339
aI455
aI649
aI802
aI1004
aI1130
aI1263
aI1349
aI1532
aI1628
aI1724
aI1875
aI2010
aI2132
aI2215
aI2410
aa(lp900
I0
aI104
aI248
aI502
aI555
aI685
aI841
aI1018
aI1081
aI1149
aI1266
aI1408
aI1527
aI1568
aI1669
aI1761
aI1830
aa(lp901
I0
aI142
aI600
aI726
aI806
aI907
aI998
aI1104
aI1164
aI1297
aI1451
aI1588
aI1664
aI1832
aa(lp902
I0
aI170
aI287
aI457
aI612
aI738
aI792
aI935
aI1058
aI1167
aI1250
aa(lp903
I0
aI160
aI316
aI473
aI634
aI684
aI736
aI1046
aI1121
aI1249
aa(lp904
I0
aI161
aI289
aI445
aI592
aI639
aI746
aI923
aI1041
aI1214
aI1343
aa(lp905
I0
aI230
aI363
aI534
aI630
aI820
aI1115
aI1281
aI1370
aI1499
aI1583
aI1684
aI1839
aI1954
aI2540
aa(lp906
I0
aI154
aI333
aI675
aa(lp907
I0
aI68
aI153
aa(lp908
I0
aI98
aI225
aI477
aa(lp909
I0
aI254
aI403
aI553
aI673
aI743
aI822
aI977
aI1031
aI1213
aI1378
aI1727
aI1898
aI2014
aI2176
aa(lp910
I0
aI375
aI434
aI518
aI597
aI706
aI758
aI880
aI1078
aI1145
aI1301
aa(lp911
I0
aI116
aI249
aI438
aa(lp912
I0
aI104
aI314
aI467
aI654
aI866
aI943
aa(lp913
I0
aI227
aI311
aI388
aI564
aI680
aI807
aI974
aI1109
aI1259
aI1340
aa(lp914
I0
aI103
aI207
aI260
aI384
aI453
aI593
aI672
aI808
aI945
aa(lp915
I0
aI135
aI265
aI368
aI472
aI688
aI794
aI903
aI981
aI1054
aa(lp916
I0
aa(lp917
I0
aI176
aI338
aI461
aI661
aa(lp918
I0
aI91
aI303
aI371
aI456
aI586
aI832
aI973
aI1098
aI1274
aI1441
aI1618
aI1699
aI1867
aI1893
aa(lp919
I0
aI157
aI409
aI715
aa(lp920
I0
aI289
aI365
aI578
aI659
aI756
aI830
aI920
aI1065
aI1185
aI1262
aI1424
aI1541
aI1688
aa(lp921
I0
aI62
aI163
aI327
aI433
aI576
aI670
aI816
aI954
aI1073
aI1166
aI1288
aI1454
aI1580
aI1790
aI1941
aI2039
aI2212
aI2318
aI2384
aI2490
aI2597
aI2659
aa(lp922
I0
aI121
aI257
aI573
aI619
aI703
aI931
aI1078
aI1155
aI1259
aI1357
aI1431
aI1468
aI1617
aI1734
aI1801
aI1968
aI2059
aI2108
aI2229
aI2349
aI2411
aI2571
aI2650
aI2715
aa(lp923
I0
aI96
aI474
aI574
aI734
aI873
aI964
aI1136
aI1308
aI1419
aI1566
aI1713
aI1839
aI1909
aa(lp924
I0
aI183
aI256
aI321
aI469
aa(lp925
I0
aI185
aI339
aI411
aI458
aI591
aI662
aI895
aI965
aI1171
aI1312
aa(lp926
I0
aI163
aI329
aI510
aI659
aI705
aI860
aI1052
aI1204
aI1550
aa(lp927
I0
aI198
aI313
aI442
aI499
aI595
aI652
aI724
aI897
aI1007
aI1237
aI1510
aI1583
aI1729
aI1872
aI2034
aI2167
aI2315
aI2406
aa(lp928
I0
aI112
aI174
aI265
aI403
aI461
aI547
aI663
aI761
aI865
aI981
aI1143
aI1251
aI1353
aI1460
aI1618
aI1712
aI1889
aI1958
aI2096
aI2209
aa(lp929
I0
aI168
aI301
aI514
aI574
aI666
aI788
aI835
aI950
aI1048
aa(lp930
I0
aI138
aI199
aI306
aI401
aI472
aa(lp931
I0
aI152
aI269
aa(lp932
I0
aI206
aI318
aI518
aI591
aI700
aI915
aa(lp933
I0
aI159
aI370
aI492
aa(lp934
I0
aI172
aI308
aI393
aa(lp935
I0
aI132
aI228
aI374
aI460
aI608
aI732
aI855
aI955
aI1253
aI1362
aI1456
aI1552
aI1649
aI1809
aI1886
aI1966
aa(lp936
I0
aI217
aI321
aI390
aI582
aI706
aI801
aI906
aI993
aI1117
aI1281
aI1443
aI1502
aI1622
aI1744
aI1797
aa(lp937
I0
aI111
aI211
aI347
aI697
aI904
aI1043
aI1126
aI1302
aI1448
aI1614
aI1673
aI1797
aa(lp938
I0
aI74
aI135
aI247
aI354
aa(lp939
I0
aI111
aI249
aI296
aI335
aI463
aI555
aI670
aI791
aa(lp940
I0
aI75
aI240
aI347
aI511
aI643
aI744
aI828
aI898
aI1061
aI1192
aI1274
aI1400
aI1535
aI1666
aa(lp941
I0
aI145
aI195
aI277
aI378
aI585
aI932
aI1089
aI1145
aI1220
aI1290
aI1524
aI1651
aI1769
aI1906
aI1992
aa(lp942
I0
aI174
aI562
aI700
aI815
aI1011
aI1103
aI1289
aI1335
aI1527
aI1616
aI1736
aa(lp943
I0
aI221
aI239
aI437
aI565
aI606
aI757
aI820
aI876
aa(lp944
I0
aI86
aI229
aI308
aI538
aI667
aa(lp945
I0
aI251
aI328
aI455
aI631
aI715
aI900
aI983
aI1118
aI1271
aI1430
aI1531
aI1764
aI1891
aI1965
aI2142
aI2292
aI2423
aI2528
aI2589
aI2755
aI2837
aI2954
aa(lp946
I0
aI131
aI274
aI419
aI515
aI698
aI817
aI915
aI1035
aI1159
aI1238
aI1299
aI1401
aI1480
aI1572
aI1706
aa(lp947
I0
aI211
aI357
aI621
aI757
aI836
aI1060
aI1222
aI1335
aI1464
aI1563
aI1722
aI1893
aI2015
aI2190
aI2282
aa(lp948
I0
aI144
aI316
aa(lp949
I0
aI105
aI220
aI289
aI375
aI611
aa(lp950
I0
aI171
aI320
aI426
aI706
aI858
aI992
aI1181
aI1283
aa(lp951
I0
aI100
aI260
aI375
aI441
aa(lp952
I0
aI162
aI298
aI383
aI604
aI734
aI896
aI1064
aI1124
aa(lp953
I0
aI190
aI281
aI388
aI538
aI705
aI780
aa(lp954
I0
aI167
aI229
aI294
aI410
aI481
aI639
aa(lp955
I0
aI78
aI235
aI356
aI428
aI524
aI644
aI784
aI866
aI956
aI1065
aa(lp956
I0
aI133
aI310
aI448
aI610
aI802
aI892
aI997
aI1181
aI1344
aI1521
aI1677
aa(lp957
I0
aI236
aI345
aI431
aa(lp958
I0
aI116
aI217
aI328
aI470
aI596
aI756
aI822
aI1050
aa(lp959
I0
aI118
aI271
aI416
aI602
aI740
aI838
aI1137
aI1291
aI1410
aI1542
aa(lp960
I0
aI55
aI137
aI299
aI472
aI565
aI655
aI766
aI969
aI1047
aI1205
aI1366
aI1596
aI1731
aa(lp961
I0
aI98
aI263
aI315
aa(lp962
I0
aI80
aI149
aI270
aI398
aI539
aI693
aI813
aI937
aI1070
aI1180
aI1279
aI1431
aa(lp963
I0
aI242
aI386
aI472
aI601
aI712
aI789
aI904
aI979
aI1093
aI1214
aI1293
aI1418
aI1476
aI1622
aI1726
aa(lp964
I0
aI122
aI207
aI343
aI440
aI608
aI757
aI868
aI963
aI1155
aI1344
aI1484
aI1647
aI1775
aI1882
aI2011
aI2274
aI2420
aI2577
aa(lp965
I0
aI564
aI667
aI779
aI828
aI928
aI1041
aI1147
aI1370
aI1555
aI1675
aI1845
aI1940
aI2050
aI2161
aI2267
aa(lp966
I0
aI189
aI391
aI584
aI734
aI898
aI1014
aa(lp967
I0
aI77
aI157
aI237
aI365
aI528
aI591
aI674
aI738
aI816
aa(lp968
I0
aI116
aI333
aI503
aI625
aI848
aI952
aI1099
aI1205
aI1371
aI1517
aI1788
aI1951
aI2075
aI2159
aI2221
aI2256
aa(lp969
I0
aI138
aI283
aI445
aI527
aI645
aI757
aI874
aI1017
aI1177
aI1317
aI1407
aI1660
aI1742
aI1798
aI1884
aa(lp970
I0
aI141
aI456
aI560
aI710
aI824
aI1008
aI1151
aI1331
aI1394
aI1527
aa(lp971
I0
aI182
aI335
aI503
aa(lp972
I0
aI160
aI248
aI366
aI484
aI624
aa(lp973
I0
aI97
aI206
aI335
aI470
aI634
aI776
aI895
aI950
aI1115
aI1182
aI1343
aI1432
aI1649
aI1746
aI1847
aI1992
aI2280
aI2370
aI2497
aI2636
aI2711
aI2878
aI2940
aI3033
aI3258
aI3409
aa(lp974
I0
aI93
aI293
aI392
aI604
aI719
aI761
aI898
aI1021
aI1189
aI1298
aI1338
aI1455
aI1605
aI1851
aI1913
aI2042
aI2168
aI2314
aa(lp975
I0
aI57
aI471
aI559
aI632
aI779
aI869
aI929
aI1104
aI1229
aI1307
aI1364
aI1465
aa(lp976
I0
aI186
aI287
aI360
aI556
aI624
aI835
aI994
aI1068
aa(lp977
I0
aI130
aI236
aI415
aI515
aI579
aI678
aI762
aa(lp978
I0
aI168
aI351
aI485
aI631
aI741
aI895
aI1071
aI1212
aa(lp979
I0
aI224
aI358
aI477
aI549
aI691
aI829
aI1029
aI1162
aI1276
aI1364
aI1497
aI1607
aI1710
aa(lp980
I0
aI156
aI338
aI490
aI677
aI792
aI943
aa(lp981
I0
aI90
aI248
aI400
aI473
aI603
aa(lp982
I0
aI98
aI255
aI407
aI506
aI635
aI793
aI1003
aI1131
aI1452
aa(lp983
I0
aI101
aI274
aI413
aI538
aI726
aI809
aI915
aI1087
aI1225
aI1320
aI1506
aI1882
aa(lp984
I0
aI122
aI282
aI434
aI515
aI588
aa(lp985
I0
aI97
aI174
aI270
aI380
aI477
aI612
aI796
aI946
aI1073
aI1213
aa(lp986
I0
aI135
aI313
aI393
aI459
aI576
aI721
aI962
aa(lp987
I0
aI178
aI318
aI389
aI528
aI674
aI761
aI874
aI985
aI1112
aI1164
aI1252
aI1407
aI1544
aI1662
aI1783
aI1854
aI1998
aa(lp988
I0
aI96
aI466
aI570
aI623
aI677
aI899
aa(lp989
I0
aI160
aI311
aI473
aa(lp990
I0
aI150
aa(lp991
I0
aI140
aI540
aI759
aI1002
aI1172
aI1377
aI1472
aa(lp992
I0
aI82
aI208
aI309
aI378
aI534
aI585
aI715
aI818
aa(lp993
I0
aI106
aI279
aI418
aI561
aI676
aa(lp994
I0
aI107
aI221
aI334
aI362
aI407
aI513
aa(lp995
I0
aI118
aI356
aI482
aI536
aI616
aI753
aI901
aI1046
aI1111
aI1216
aI1420
aI1582
aI1691
aI1792
aI1941
aI2015
aI2178
aa(lp996
I0
aI320
aI424
aI523
aI644
aI781
aI931
aI1132
aI1326
aa(lp997
I0
aI119
aI431
aI561
aI652
aI779
aI936
aI1102
aI1267
aI1323
aa(lp998
I0
aI153
aI321
aI461
aI565
aI669
aa(lp999
I0
aI166
aI246
aI339
aa(lp1000
I0
aI92
aI200
aI323
aa(lp1001
I0
aI68
aI171
aI290
aI408
aI574
aI710
aI906
aI1071
aI1267
aa(lp1002
I0
aI125
aI237
aI319
aa(lp1003
I0
aI286
aa(lp1004
I0
aI138
aI258
aI345
aI491
aI625
aI770
aI961
aI1031
aI1135
aI1240
aI1320
aI1412
aI1551
aI1642
aI1791
aI1897
aa(lp1005
I0
aI91
aI176
aI286
aI403
aI562
aI755
aI851
aI996
aI1105
aI1241
aI1377
aI1562
aI1815
aa(lp1006
I0
aI465
aI544
aI594
aI685
aI820
aI921
aI1044
aa(lp1007
I0
aI110
aI264
aI344
aI522
aI661
aI727
aI850
aI1061
aI1136
aI1207
aI1237
aa(lp1008
I0
aI168
aI385
aI492
aI599
aI707
aI856
aI1024
aa(lp1009
I0
aI136
aI189
aI310
aI481
aI563
aI761
aI826
aI964
aI1130
aI1283
aI1392
aI1572
aI1794
aI1959
aI2142
aI2277
aI2468
aa(lp1010
I0
aI67
aI160
aI273
aI438
aI558
aI766
aI841
aI988
aI1120
aI1224
aI1324
aI1505
aI1601
aI1691
aI1865
aI1948
aa(lp1011
I0
aI173
aI454
aI514
aI626
aI734
aI1088
aI1219
aI1298
aI1502
aI1649
aI1696
aI1847
aI1970
aI2142
aI2251
aI2322
aa(lp1012
I0
aI122
aI293
aI385
aI502
aI588
aI720
aI810
aI911
aI1029
aI1040
aa(lp1013
I0
aI221
aI326
aI482
aI691
aa(lp1014
I0
aI194
aI424
aI592
aI731
aI934
aI1027
aa(lp1015
I0
aI95
aI232
aI298
aI399
aI540
aI623
aI753
aI863
aI1005
aI1152
aI1359
aI1443
aI1516
aI1684
aI1738
aI1862
aa(lp1016
I0
aI205
aI256
aI300
aI382
aI530
aa(lp1017
I0
aI254
aI521
aI796
aI1014
aI1203
aa(lp1018
I0
aI260
aI360
aI523
aI792
aI861
aI1011
aI1207
aI1306
aI1420
aa(lp1019
I0
aI296
aI414
aI578
aI738
aI843
aa(lp1020
I0
aI249
aI397
aI610
aI733
aI796
aI864
aI926
aI1104
aI1158
aI1290
aI1376
aI1432
aI1481
aI1575
aa(lp1021
I0
aI132
aI274
aI564
aI643
aI769
aI879
aa(lp1022
I0
aI184
aI307
aI377
aI529
aI578
aI807
aI961
aI1152
aI1361
aI1574
aI1706
aI1868
aI2156
aI2237
aI2496
aI2625
aI2702
aI2805
aI2918
aI3035
aI3128
aI3328
aI3429
aa(lp1023
I0
aI175
aI220
aI425
aI800
aI896
aI1212
aI1322
aI1472
aI1517
aI1634
aI1808
aI1981
aI2066
aI2199
aI2287
aI2393
aI2513
aI2624
aI2753
aI2824
aI2877
aI2943
aI3096
aI3269
aI3378
aI3449
aI3587
aI3692
aI3790
aI3878
aI3993
aI4101
aa(lp1024
I0
aI254
aI438
aI506
aI682
aI867
aI944
aI1037
aI1148
aI1246
aI1334
aI1603
aI1744
aI1877
aa(lp1025
I0
aI176
aI336
aa(lp1026
I0
aI152
aI299
aI415
aI510
aI656
aI847
aa(lp1027
I0
aI207
aI405
aI579
aI815
aI863
aI1011
aI1120
aI1266
aa(lp1028
I0
aI177
aI383
aI502
aI604
aI815
aI911
aI963
aI1158
aI1270
aa(lp1029
I0
aI138
aI222
aI359
aI533
aI620
aI788
aI906
aI1054
aI1152
aa(lp1030
I0
aI140
aI254
aI413
aI479
aI680
aI842
aI967
aI1060
aa(lp1031
I0
aI162
aI313
aI427
aI548
aI702
aI876
aa(lp1032
I0
aI244
aI446
aI590
aI758
aI1046
aI1226
aa(lp1033
I0
aI131
aI286
aI603
aI822
aI941
aI999
aI1200
aI1337
aI1464
aI1576
aI1688
aI1818
aa(lp1034
I0
aI133
aI234
aI398
aI545
aI736
aI884
aI958
aI1235
aI1377
aI1487
aI1559
aI1757
aI1934
aI2063
aI2176
aI2297
aI2359
aa(lp1035
I0
aI175
aI291
aI414
aI516
aI702
aI833
aI985
aI1121
aI1271
aI1549
aI1608
aI1759
aI1845
aI1916
aI1963
aI2146
aI2259
aI2531
aI2584
aa(lp1036
I0
aI138
aI433
aI548
aI637
aI752
aI827
aI964
aI1064
aI1170
aI1357
aa(lp1037
I0
aI127
aI262
aa(lp1038
I0
aI135
aI237
aI337
aI395
aI502
aa(lp1039
I0
aI178
aI385
aI655
aI774
aI978
aI1055
aI1341
aa(lp1040
I0
aI224
aI298
aI406
aI651
aI765
aI948
aI1074
aa(lp1041
I0
aI159
aI409
aI608
aa(lp1042
I0
aI25
aI41
aI63
aI172
aI395
aI485
aI531
aI674
aI754
aI867
aI959
aI1055
aI1133
aI1271
aI1496
aI1619
aI1751
aI1882
aa(lp1043
I0
aI131
aI334
aI435
aa(lp1044
I0
aI133
aI224
aI382
aI601
aI723
aI794
aI904
aI1116
aI1316
aI1437
aI1571
aa(lp1045
I0
aI136
aI278
aI330
aI427
aI577
aI1053
aI1248
aI1447
aI1665
aI1901
aI1945
aI2093
aI2202
aI2348
aI2559
aa(lp1046
I0
aI138
aI245
aI316
aI466
aI592
aI740
aI897
aa(lp1047
I0
aI123
aI236
aI420
aI523
aa(lp1048
I0
aI172
aI268
aI425
aI505
aI627
aI693
aI930
aI1334
aI1427
aI1465
aI1647
aI1795
aI1998
aI2117
aI2198
aa(lp1049
I0
aI197
aI239
aI522
aI664
aI839
aI949
aI1095
aI1150
aI1289
aI1410
aI1455
aI1603
aI1714
aI1849
aa(lp1050
I0
aI596
aI808
aI846
aI1015
aI1126
aI1280
aI1426
aa(lp1051
I0
aI159
aI290
aI578
aI635
aI828
aa(lp1052
I0
aI90
aI269
aa(lp1053
I0
aI95
aI193
aI293
aI462
aI521
aI728
aI973
aI1117
aI1266
aI1322
aI1435
aI1681
aI1785
aI1835
aI1916
aI2018
aa(lp1054
I0
aI118
aI322
aI470
aI553
aI671
aI869
aI948
aI1053
aI1208
aI1369
aI1546
aI1604
aI2007
aI2172
aI2293
aI2415
aI2508
aa(lp1055
I0
aI181
aI578
aI698
aI829
aI860
aI1002
aI1094
aI1302
aI1377
aI1500
aa(lp1056
I0
aI105
aI240
aI445
aI546
aI621
aI731
aI818
aI874
aI949
aa(lp1057
I0
aI56
aI178
aI277
aI387
aI479
aa(lp1058
I0
aI136
aI231
aa(lp1059
I0
aI183
aI256
aI346
aI429
aI476
aI545
aI744
aI860
aI938
aI1034
aI1119
aa(lp1060
I0
aa(lp1061
I0
aI173
aI358
aI513
aI644
aI854
aa(lp1062
I0
aI115
aI286
aI374
aI513
aI722
aI959
aI1094
aa(lp1063
I0
aI184
aI317
aI440
aI578
aI686
aI782
aI907
aI1003
aI1070
aI1140
aI1255
aI1349
aI1450
aI1523
aI1556
aI1703
aI1830
aa(lp1064
I0
aI98
aI259
aI333
aa(lp1065
I0
aI65
aI270
aI333
aI467
aI638
aI733
aI861
aI946
aI1045
aI1132
aI1190
aI1397
aI1494
aI1579
aI1680
aa(lp1066
I0
aI144
aI255
aI312
aI426
aI534
aI605
aI689
aI732
aI850
aI986
aI1088
aI1170
aI1301
aa(lp1067
I0
aI81
aI337
aI441
aI493
aI682
aI888
aI1061
aI1245
aI1428
aa(lp1068
I0
aI114
aI189
aI332
aI515
aI706
aI820
aI925
aI974
aa(lp1069
I0
aI215
aI303
aI446
aI571
aI740
aI791
aI950
aI1040
aI1120
aa(lp1070
I0
aI77
aI202
aI343
aI479
aI599
aI755
aI919
aI1045
aI1248
aI1404
aa(lp1071
I0
aI113
aI254
aI414
aI535
aI583
aI749
aI960
aI1043
aI1109
aI1232
aI1358
aI1448
aI1479
aI1542
aI1629
aI1688
aI1796
aI1921
aa(lp1072
I0
aI132
aI230
aI409
aI518
aI678
aI741
aa(lp1073
I0
aI130
aI184
aI341
aI499
aI749
aI863
aI984
aI1093
aa(lp1074
I0
aI77
aI277
aI379
aI574
aI642
aI792
aI921
aI1086
aI1206
aI1268
aI1472
aI1603
aI1791
aI1938
aI2126
aI2281
aI2384
aI2496
aI2571
aI2668
aI2792
aI2927
aI2976
aI3113
aa(lp1075
I0
aI301
aI389
aI716
aI926
aI1157
aI1318
aI1442
aI1560
aI1707
aI1892
aI2063
aI2164
aI2353
aa(lp1076
I0
aI69
aI156
aI208
aI270
aI841
aI1030
aI1152
aI1275
aI1549
aI1686
aa(lp1077
I0
aI204
aI317
aI413
aI514
aI581
aa(lp1078
I0
aI108
aI233
aI340
aI470
aI626
aa(lp1079
I0
aI51
aI195
aI422
aI611
aI696
aI827
aI921
aI1014
aI1142
aI1270
aI1337
aI1456
aI1637
aI1749
aI1910
aI2018
aI2155
aI2234
aI2351
aI2481
aI2574
aI2668
aa(lp1080
I0
aI191
aI304
aI394
aI500
aI618
aI693
aI786
aI886
aI963
aI1089
aI1334
aI1455
aI1574
aI1669
aI1749
aI1875
aa(lp1081
I0
aI190
aI370
aI416
aI521
aI677
aI1180
aI1350
aI1429
aI1588
aI1711
aI1778
aI1933
aI2011
aI2077
aI2331
aI2463
aI2581
aa(lp1082
I0
aI139
aI206
aI315
aI399
aI512
aI582
aI753
aI787
aa(lp1083
I0
aI55
aI281
aI383
aI490
aI650
aI763
aI853
aI1019
aI1133
aI1225
aI1397
aa(lp1084
I0
aI139
aI381
aI477
aI653
aI809
aI996
aI1172
aI1302
aI1522
aI1589
aa(lp1085
I0
aI156
aI345
aI503
aI714
aI881
aI1015
aI1118
aI1306
aa(lp1086
I0
aI145
aI283
aI433
aI523
aI725
aa(lp1087
I0
aI137
aI198
aI284
aI349
aI420
aa(lp1088
I0
aI158
aI294
aI389
aI517
aI595
aI720
aI844
aI968
aI1067
aI1123
aI1213
aI1309
aI1369
aI1451
aI1556
aI1691
aI1762
aI1880
aI1934
aI2057
aa(lp1089
I0
aI146
aI406
aI457
aI574
aI698
aI814
aI1020
aI1140
aI1298
aI1368
aI1496
aa(lp1090
I0
aI76
aI170
aI259
aI385
aI844
aI957
aI1103
aI1182
aI1320
aI1437
aI1567
aI1707
aa(lp1091
I0
aI124
aI199
aI330
aI476
aI559
aI686
aa(lp1092
I0
aa(lp1093
I0
aI133
aI306
aI390
aI494
aI611
aI796
aI935
aI992
aI1107
aI1271
aI1386
aI1446
aI1556
aa(lp1094
I0
aI149
aI212
aI282
aI363
aI554
aI690
aI865
aa(lp1095
I0
aI109
aI178
aI529
aI648
aI777
aI1117
aa(lp1096
I0
aI151
aI295
aa(lp1097
I0
aI85
aI240
aI321
aI394
aI526
aI623
aI698
aa(lp1098
I0
aI121
aI295
aI638
aI727
aI851
aI918
aI1105
aI1182
aI1277
aI1424
aI1565
aI1691
aI1909
aI2106
aI2166
aI2342
aa(lp1099
I0
aI159
aI290
aI377
aI459
aI599
aI746
aI840
aI963
aI1120
aI1248
aI1448
aI1641
aI1750
aI1834
aI1925
aI2031
aI2151
aI2259
aI2405
aI2517
aI2634
aI2728
aI2773
aI2890
aa(lp1100
I0
aI80
aI177
aI555
aI615
aI715
aI792
aI899
aI1023
aI1129
aI1252
aI1440
aI1664
aI1748
aI1971
aI2189
aa(lp1101
I0
aI175
aI384
aI612
aI693
aI913
aI1206
aI1322
aI1438
aa(lp1102
I0
aI111
aI187
aI349
aa(lp1103
I0
aI111
aI230
aI288
aI493
aI580
aI681
aI824
aI911
aI1037
aI1086
aI1207
aI1316
aI1388
aI1570
aI1610
aI1749
aI1807
aI1900
aI1957
aI2046
aa(lp1104
I0
aI188
aI284
aI391
aI597
aI803
aI935
aI1049
aI1217
aI1288
aI1475
aI1606
aI1855
aI2020
aI2095
aI2191
aI2305
aa(lp1105
I0
aI200
aI365
aI420
aI699
aI756
aI978
aI1120
aI1202
aI1376
aI1578
aI1644
aI1675
aa(lp1106
I0
aI89
aI240
aI344
aI489
aI646
aa(lp1107
I0
aI251
aI307
aI409
aa(lp1108
I0
aI109
aI185
aI289
aI399
aI549
aI665
aI821
aI871
aI1094
aI1223
aI1322
aI1441
aI1523
aI1633
aI1721
aa(lp1109
I0
aI144
aI211
aI302
aI383
aI489
aI617
aI787
aI924
aI965
aI1049
aa(lp1110
I0
aI108
aI173
aI492
aI590
aI638
aI759
aI801
aI944
aI1086
aa(lp1111
I0
aI107
aI211
aI356
aI489
aI538
aI656
aI783
aI832
aa(lp1112
I0
aI90
aI329
aa(lp1113
I0
aI140
aI318
aI395
aI478
aI581
aI737
aI884
aI918
aI1045
aI1176
aI1279
aI1470
aI1638
aI1703
aI1789
aI1875
aI1979
aI2075
aI2194
aa(lp1114
I0
aI98
aI235
aI373
aI515
aI680
aI748
aI810
aI919
aI1049
aI1103
aI1254
aI1300
aI1409
aI1582
aa(lp1115
I0
aI91
aI184
aI272
aI449
aI826
aI972
aI1022
aI1143
aI1311
aI1454
aI1591
aa(lp1116
I0
aI220
aI366
aI489
aI649
aI710
aI789
aI893
aI1025
aI1128
aI1254
aa(lp1117
I0
aI70
aI157
aI288
aI368
aI436
aI573
aa(lp1118
I0
aI59
aI178
aI300
aI444
aI538
aI616
aI745
aI799
aI919
aI1074
aI1199
aI1346
aI1530
aI1731
aI1830
aI1947
aI2022
aI2120
aa(lp1119
I0
aI217
aI533
aI598
aI704
aI763
aI964
aI1110
aI1227
aI1417
aa(lp1120
I0
aI113
aI198
aI285
aI654
aI710
aI864
aI982
aI1058
aI1207
aI1323
aI1453
aI1595
aa(lp1121
I0
aI117
aI219
aI362
aI467
aI538
aI626
aI713
aI788
aI966
aI1138
aa(lp1122
I0
aI154
aI292
aa(lp1123
I0
aI144
aI358
aa(lp1124
I0
aI132
aI221
aI299
aI464
aI533
aI674
aI947
aI1084
aI1374
aa(lp1125
I0
aI155
aI307
aa(lp1126
I0
aI88
aI157
aI302
aI413
aI506
aI586
aa(lp1127
I0
aI110
aI324
aI524
aI689
aI781
aI927
aI1029
aI1176
aI1227
aI1302
aI1424
aI1618
aI1675
aI1847
aI1954
aI2098
aI2235
aI2356
aI2491
aI2590
aI2686
aI2744
aI2920
aI3042
aa(lp1128
I0
aI61
aI250
aI373
aI586
aI720
aI809
aI949
aI1057
aI1131
aI1240
aI1396
aI1479
aI1638
aI1706
aI1787
aI1888
aa(lp1129
I0
aI178
aI565
aI770
aI1012
aI1104
aI1245
aI1320
aI1484
aI1623
aI1781
aI2083
aI2328
aI2376
aI2521
aI2742
aI3129
aa(lp1130
I0
aI210
aI342
aI519
aI654
aI753
aI917
aa(lp1131
I0
aI192
aI354
aI395
aI518
aI720
aa(lp1132
I0
aI176
aI338
aI521
aI600
aI749
aI899
aI959
aI1092
aI1189
aI1400
aI1481
aI1547
aI1644
aI1760
aI1933
aI2044
aI2190
aI2355
aI2496
aI2639
aI2910
aI3002
aI3192
aI3271
aI3359
aI3458
aI3553
aI3754
aa(lp1133
I0
aI157
aI232
aI338
aI440
aI504
aI634
aI813
aI973
aI1078
aI1205
aI1526
aI1649
aI1836
aI2056
aa(lp1134
I0
aI185
aI232
aI336
aI677
aI828
aI977
aI1047
aI1112
aI1212
aI1396
aa(lp1135
I0
aI128
aI223
aI303
aI440
aI569
aa(lp1136
I0
aI190
aI268
aI384
aI430
aI545
aI638
aa(lp1137
I0
aI123
aI300
aI525
aI679
aI818
aI1022
aI1101
aI1211
aI1311
aI1413
aI1553
aI1748
aI1861
aI1952
aa(lp1138
I0
aI85
aI271
aI344
aI459
aI496
aI623
aI721
aI820
aI1001
aI1077
aI1169
aI1322
aI1445
aI1620
aI1767
aa(lp1139
I0
aI71
aI158
aI402
aI501
aI578
aI725
aI813
aI913
aI1097
aa(lp1140
I0
aI116
aI303
aI432
aI592
aI644
aa(lp1141
I0
aI88
aI177
aI260
aI367
aI443
aI608
aI678
aI812
aI873
aI932
aI1035
aI1150
aa(lp1142
I0
aI112
aI319
aI474
aI605
aI669
aI775
aI948
aI1004
aa(lp1143
I0
aI174
aI349
aI557
aI680
aI777
aI900
aI1106
aI1265
aI1583
aa(lp1144
I0
aI206
aI292
aI406
aI495
aI582
aI742
aI786
aI955
aI1067
aa(lp1145
I0
aI152
aI412
aI544
aI759
aa(lp1146
I0
aI177
aI398
aI562
aI688
aI843
aI1030
aI1205
aI1262
aI1459
aI1608
aI1677
aI1870
aI1962
aI2121
aI2179
aI2300
aI2409
aI2598
aa(lp1147
I0
aI170
aI298
aI473
aI655
aI828
aI966
aI1186
aI1267
aI1414
aI1606
aI1791
aI1891
aI2045
aI2128
aI2263
aI2394
aI2568
aI2642
aI2784
aa(lp1148
I0
aI99
aI129
aI379
aI801
aI955
aI1128
aI1221
aI1374
aI1440
aI1590
aI1740
aI2010
aI2168
aI2225
aI2356
aI2452
aI2668
aI2871
aa(lp1149
I0
aI229
aI359
aI519
aI701
aI804
aI888
aa(lp1150
I0
aI106
aI247
aI314
aI427
aI568
aI715
aI841
aI948
aI1050
aI1265
aI1390
aI1526
aa(lp1151
I0
aI157
aI341
aI426
aI580
aa(lp1152
I0
aI137
aI345
aI464
aI532
aI636
aI700
aI878
aI1016
aI1229
aI1262
aI1412
aI1532
aI1755
aI1913
aI2308
aa(lp1153
I0
aI150
aI392
aa(lp1154
I0
aI53
aI188
aI297
aI417
aI540
aI603
aI704
aI779
aa(lp1155
I0
aI208
aI331
aI474
aI610
aI779
aa(lp1156
I0
aI110
aI199
aI331
aI547
aI634
aI696
aI974
aI1074
aI1287
aI1375
aa(lp1157
I0
aI149
aI254
aI389
aI536
aa(lp1158
I0
aI149
aI236
aI295
aI424
aI508
aI588
aa(lp1159
I0
aI150
aI260
aI330
aI393
aI599
aa(lp1160
I0
aI178
aI384
aI431
aI593
aI692
aI809
aI874
aI1012
aI1093
aI1228
aI1429
aI1520
aI1641
aI1834
aI1960
aI2132
aI2231
aa(lp1161
I0
aI178
aI289
aI520
aI599
aI695
aa(lp1162
I0
aI114
aI205
aI326
aI413
aa(lp1163
I0
aI165
aI412
aI525
aI644
aI741
aa(lp1164
I0
aI161
aI219
aI417
aI560
aI699
aI872
aI952
aI1105
aI1267
aI1371
aI2149
aa(lp1165
I0
aI81
aI234
aI372
aI526
aI644
aI809
aa(lp1166
I0
aI81
aI193
aI256
aI370
aI541
aI617
aI686
aa(lp1167
I0
aI213
aI352
aI438
aI526
aI674
aI834
aI907
aa(lp1168
I0
aI141
aI269
aI376
aI584
aI726
aI884
aI961
aI1093
aI1214
aI1881
aa(lp1169
I0
aI204
aI322
aI468
aa(lp1170
I0
aI196
aI257
aI402
aI541
aI623
aI854
aa(lp1171
I0
aI121
aI255
aI486
aI683
aI781
aI963
aI1036
aI1109
aa(lp1172
I0
aI115
aI248
aI324
aI483
aI585
aI643
aI720
aI826
aI978
aI1071
aI1237
aI1398
aI1558
aI1692
aI1888
aI2171
aI2315
aI2435
aI2575
aI2707
aI2845
aI3512
aa(lp1173
I0
aI149
aI274
aI454
aI657
aa(lp1174
I0
aI67
aI220
aI318
aI406
aI542
aI662
aI820
aI1052
aa(lp1175
I0
aI69
aI168
aI311
aI483
aI674
aI803
aa(lp1176
I0
aI151
aI262
aI380
aI531
aI602
aI696
aI801
aI918
aI1158
aI1256
aI1358
aI1424
aa(lp1177
I0
aI170
aI368
aI550
aI715
aI954
aI1020
aI1149
aa(lp1178
I0
aI164
aI273
aI448
aI568
aI668
aI775
aI822
aI908
aI1023
aI1128
aI1221
aI1301
aI1368
aI1499
aI1613
aI1738
aI1861
aI1979
aI2063
aa(lp1179
I0
aI96
aI240
aI338
aI501
aI623
aI945
aI1033
aI1168
aI1301
aI1363
aI1490
aa(lp1180
I0
aI120
aI216
aI291
aI475
aI647
aI703
aI844
aI963
aI1093
aI1181
aI1324
aI1416
aI1513
aI1611
aI1728
aI1866
aI2045
aI2215
aa(lp1181
I0
aI158
aI766
aI884
aI1050
aI1222
aI1387
aI1535
aI1602
aI1795
aI1957
aI2203
aI2384
aa(lp1182
I0
aI205
aI305
aa(lp1183
I0
aI102
aI267
aI398
aI469
aI648
aI735
aI910
aI1081
aI1118
aI1290
aI1403
aI1495
aI1573
aI1623
aI1736
aI1825
aI2105
aI2208
aa(lp1184
I0
aI191
aI302
aa(lp1185
I0
aI242
aI422
aI514
aI614
aI773
aI884
aI1028
aI1160
aa(lp1186
I0
aI130
aI322
aI446
aI645
aa(lp1187
I0
aI179
aI442
aI654
aI731
aa(lp1188
I0
aI78
aI240
aI369
aI532
aI647
aI768
aI901
aI975
aI1093
aI1222
aI1415
aa(lp1189
I0
aI147
aI310
aI393
aa(lp1190
I0
aI229
aI385
aI530
aI666
aI775
aa(lp1191
I0
aI72
aI200
aI305
aI472
aI657
aI815
aI1001
aI1145
aI1284
aI1405
aI1574
aa(lp1192
I0
aI165
aI338
aI492
aI786
aI852
aa(lp1193
I0
aI57
aI71
aI247
aI321
aI467
aI606
aI763
aI875
aI978
aI1085
aI1219
aI1377
aI1526
aI1639
aI1836
aI2088
aI2244
aI2410
aI2567
aI2736
aa(lp1194
I0
aI99
aI178
aI288
aI396
aI476
aI663
aI882
aI1005
aa(lp1195
I0
aI165
aI222
aI317
aI498
aI683
aI761
aI845
aI1003
aI1091
aI1192
aI1336
aI1408
aI1539
aI1608
aI1729
aI1845
aI1951
aa(lp1196
I0
aI114
aI232
aI341
aI600
aI940
aI1085
aI1175
aI1268
aI1386
aI1487
aa(lp1197
I0
aI155
aI236
aI323
aI433
aI515
aI593
aI749
aI898
aI1033
aI1089
aI1165
aI1387
aI1529
aI1637
aI1767
aI1932
aI2020
aI2079
aI2225
aI2320
aI2404
aI2543
aa(lp1198
I0
aI89
aI205
aI473
aI812
aI914
aI978
aI1051
aI1256
aI1420
aI1487
aI1630
aI1800
aI1863
aI1973
aI2103
aI3064
aa(lp1199
I0
aI188
aI347
aI431
aI571
aI714
aI895
aa(lp1200
I0
aI345
aI502
aI590
aa(lp1201
I0
aI126
aI172
aI379
aI459
aa(lp1202
I0
aI54
aI191
aI344
aI532
aI578
aI635
aI745
aI827
aI910
aI1015
aI1154
aI1235
aa(lp1203
I0
aI108
aI250
aI481
aI595
aI764
aI831
aa(lp1204
I0
aI145
aI277
aI143
aI442
aI635
aI782
aI880
aI965
aI1002
aI1105
aI1148
aI1283
aI1423
aI1507
aa(lp1205
I0
aI166
aI340
aI545
aa(lp1206
I0
aI106
aI187
aI317
aI373
aI437
aI536
aa(lp1207
I0
aI113
aI151
aI281
aI432
aI603
aI703
aI737
aI861
aI1036
aa(lp1208
I0
aI180
aI311
aI496
aa(lp1209
I0
aI127
aI203
aI381
aI456
aI579
aI646
aI805
aI923
aI1002
aI1087
aI1195
aI1225
aI1276
aa(lp1210
I0
aI105
aI215
aI302
aa(lp1211
I0
aI119
aI242
aI401
aI503
aI616
aI711
aI876
aI992
aI1118
aI1234
aI1334
aI1440
aa(lp1212
I0
aI179
aI334
aI474
aa(lp1213
I0
aI52
aI159
aI242
aI459
aI530
aI639
aa(lp1214
I0
aI208
aI413
aI539
aI662
aa(lp1215
I0
aI197
aI254
aI392
aI508
aI626
aI666
aI751
aI845
aa(lp1216
I0
aI151
aI230
aI272
aI441
aI612
aI725
aI846
aI962
aI1184
aI1275
aI1422
aa(lp1217
I0
aI181
aI394
aa(lp1218
I0
aI246
aI328
aI467
aI654
aI723
aI870
aI968
aa(lp1219
I0
aI166
aI322
aI477
aI687
aI759
aI828
aa(lp1220
I0
aI123
aI352
aI507
aI661
aI722
aI844
aI939
aI1040
aI1173
aI1295
aI1440
aI1588
aa(lp1221
I0
aI171
aI282
aI363
aa(lp1222
I0
aI188
aI278
aI321
aI472
aI625
aI716
aa(lp1223
I0
aI179
aI321
aI603
aI713
aI988
aa(lp1224
I0
aI113
aI286
aI392
aI542
aI706
aI836
aI963
aI1099
aI1213
aI1350
aI1397
aI1480
aa(lp1225
I0
aI132
aI279
aI564
aI695
aI802
aI895
aI1017
aI1291
aI1488
aI1679
aI1801
aI1956
aI2121
aI2211
aI2517
aI2729
aI2829
aa(lp1226
I0
aI146
aI272
aI374
aI465
aI658
aI757
aI912
aI998
aI1159
aI1310
aI1536
aI1750
aI1955
aI2070
aI2230
aI2467
aI2533
aI2629
aI2857
aI2983
aI3149
aa(lp1227
I0
aI189
aI397
aI509
aI673
aI760
aI834
aI1065
aa(lp1228
I0
aI80
aI281
aI417
aI524
aI710
aI848
aI964
aI1137
aI1250
aI1414
aI1521
aI2214
aa(lp1229
I0
aI172
aI337
aI469
aI568
aI897
aI1210
aI1403
aI1453
aI1572
aa(lp1230
I0
aI182
aI348
aI494
aI559
aa(lp1231
I0
aI227
aI337
aI515
aI718
aI794
aa(lp1232
I0
aI62
aI211
aI344
aI457
aI523
aa(lp1233
I0
aI148
aI233
aI351
aI545
aI591
aI729
aa(lp1234
I0
aI113
aI222
aI332
aI405
aI614
aI684
aI748
aI954
aI1035
aI1120
aI1201
aa(lp1235
I0
aI79
aI199
aI290
aI366
aI499
aI550
aI651
aI779
aI863
aI1028
aa(lp1236
I0
aI149
aI203
aI504
aI693
aI864
aI1031
aI1099
aa(lp1237
I0
aI118
aI220
aI508
aI647
aI873
aI1190
aI1273
aI1492
aI1549
aI1699
aI1798
aI1898
aI2068
aI2213
aI2238
aa(lp1238
I0
aI218
aI379
aI466
aI606
aI780
aI845
aa(lp1239
I0
aI109
aI204
aI311
aI406
aI527
aI594
aI743
aa(lp1240
I0
aI71
aI263
aI394
aI537
aI676
aa(lp1241
I0
aI162
aI313
aI429
aI475
aI592
aI657
aI766
aI971
aI1134
aI1222
aI1878
aa(lp1242
I0
aI172
aI500
aI557
aa(lp1243
I0
aI148
aI304
aI396
aa(lp1244
I0
aI189
aa(lp1245
I0
aI149
aI259
aI343
aI551
aI681
aI782
aI919
aI1069
aI1200
aI1472
aI1517
aI1585
aI1785
aI1886
aa(lp1246
I0
aI163
aI312
aI417
aa(lp1247
I0
aI90
aI176
aI271
aI374
aI507
aI619
aI751
aa(lp1248
I0
aI134
aI270
aI344
aI480
aI563
aI708
aa(lp1249
I0
aI171
aI330
aI446
aI591
aI664
aI778
aI1011
aI1133
aI1166
aI1309
aI1407
aI1443
aI1524
aI1680
aI1731
aI1857
aa(lp1250
I0
aI87
aI117
aI721
aI784
aI924
aI981
aI1213
aI1324
aa(lp1251
I0
aI120
aI191
aI377
aa(lp1252
I0
aI116
aI256
aI435
aI529
aI579
aI704
aI777
aI979
aa(lp1253
I0
aI155
aI254
aI415
aI562
aI681
aI917
aI1059
aI1201
aI1302
aI1446
aI1666
aI1803
aI1923
aI2040
aI2211
aI2355
aI2433
aa(lp1254
I0
aI65
aI262
aI325
aI465
aI552
aI609
aI841
aI943
aI1089
aI1255
aI1368
aI1486
aI1615
aI1781
aI1974
aI2120
aI2247
aa(lp1255
I0
aI187
aI355
aI480
aI610
aI731
aI752
aI899
aa(lp1256
I0
aI103
aI229
aI328
aI492
aI628
aa(lp1257
I0
aI123
aI258
aI315
aI391
aI490
aI566
aI659
aI744
aI889
aI974
aI1037
aI1197
aa(lp1258
I0
aI200
aI319
aI392
aI472
aI544
aI632
aI761
aI848
aI1003
aI1090
aI1284
aI1360
aI1407
aI1538
aI1638
aI1744
aI2578
aa(lp1259
I0
aI86
aI270
aI416
aa(lp1260
I0
aI146
aI297
aI390
aI497
aI609
aI697
aI805
aI1048
aa(lp1261
I0
aI215
aI319
aI521
aI583
aI866
aa(lp1262
I0
aI165
aI316
aI450
aI641
aI786
aI885
aI1047
aI1141
aI1217
aa(lp1263
I0
aI164
aI303
aI476
aI619
aa(lp1264
I0
aI142
aI342
aI467
aI609
aI709
aI882
aa(lp1265
I0
aI171
aI344
aI589
aI700
aI742
aI925
aa(lp1266
I0
aI231
aI301
aI508
aI798
aI906
aI1017
aI1070
aI1283
aa(lp1267
I0
aI176
aI400
aI585
aI711
aI919
aI980
aI1543
aI1717
aI2000
aa(lp1268
I0
aI328
aI432
aI583
aI799
aI1055
aI1114
aI1218
aI1317
aI1443
aa(lp1269
I0
aI124
aI217
aI358
aI379
aI524
aI554
aI626
aI782
aI844
aI936
aI1070
aa(lp1270
I0
aI126
aI271
aI380
aI517
aI692
aI732
aI875
aI1048
aI1187
aI1234
aa(lp1271
I0
aI105
aI199
aI351
aI488
aI613
aI801
aI928
aI1038
aI1160
aI1224
aI1347
aI1447
aI2094
aa(lp1272
I0
aI157
aI282
aI394
aI539
aI661
aI736
aI846
aa(lp1273
I0
aI162
aI294
aI408
aI556
aI667
aI891
aI970
aI1049
aI1156
aI1373
aI1483
aI1618
aI1687
aI1795
aI1956
aI2098
aI2242
aI2358
aI2469
aI2541
aI2641
aI2791
aa(lp1274
I0
aI125
aI313
aI439
aI575
aI892
aI970
aI1179
aI1332
aI1526
aI1627
aI1754
aI1899
aI2144
aI2203
aI2378
aI2537
aI2656
aI2831
aI2947
aI3093
aI3241
aI3402
aI3683
aI3756
aa(lp1275
I0
aI161
aI252
aI462
aI640
aI704
aI846
aI1027
aI1128
aI1282
aI1356
aI1498
aI1609
aI1669
aI1840
aI1944
aI2131
aI2289
aI2474
aI2735
aI3393
aa(lp1276
I0
aI217
aI345
aI440
aI558
aI627
aI742
aI891
aa(lp1277
I0
aI192
aI288
aI392
aI548
aI745
aI954
aa(lp1278
I0
aI224
aI314
aI455
aI545
aI604
aI833
aI905
aI1016
aa(lp1279
I0
aI109
aI347
aI434
aI673
aI795
aI912
aI1064
aI1147
aI1304
aa(lp1280
I0
aI116
aI300
aI474
aI632
aI877
aI1012
aI1224
aI1356
aI1573
aI1820
aI1941
aI2085
aI2198
aI2295
aI2488
aI2660
aa(lp1281
I0
aI176
aI314
aI518
aI631
aI746
aI964
aI1116
aa(lp1282
I0
aI215
aI272
aI397
aI550
aI606
aI714
aI909
aI1023
aI1107
aI1246
aI1380
aa(lp1283
I0
aI114
aI226
aI371
aI537
aI655
aI763
aI834
aI930
aI1000
aI1079
aI1128
aI1221
aI1349
aa(lp1284
I0
aI84
aI289
aI433
aI555
aI607
aI722
aI792
aI888
aI1016
aa(lp1285
I0
aI96
aI162
aI266
aI354
aI442
aI556
aI669
aI732
aI838
aI947
aI1033
aI1120
aI1196
aI1397
aa(lp1286
I0
aI125
aI320
aI454
aI628
aI748
aI828
aI1002
aI1125
aa(lp1287
I0
aI136
aI225
aI266
aI425
aa(lp1288
I0
aI139
aI215
aI363
aI481
aI571
aI664
aI746
aI915
aI1020
aI1103
aI1317
aa(lp1289
I0
aI164
aI248
aI340
aI435
aI550
aI674
aI750
aI856
aI952
aI1110
aI1218
aI1265
aa(lp1290
I0
aI270
aI302
aI394
aa(lp1291
I0
aI62
aI127
aI180
aI258
aI286
aa(lp1292
I0
aI88
aI151
aI325
aI444
aI609
aI718
aI854
aI995
aI1232
aI1364
aI1525
aI1691
aI1815
aa(lp1293
I0
aI169
aI321
aI532
aa(lp1294
I0
aI132
aI246
aI459
aI587
aI730
aI831
aI921
aI1049
aI1140
aI1284
aI1361
aI1516
aI1606
aI1704
aa(lp1295
I0
aI187
aI256
aI407
aI595
aI675
aI779
aI896
aI1053
aI1132
aI1187
aa(lp1296
I0
aI199
aI293
aI382
aI548
aI627
aI757
aI798
aI975
aI1096
aI1175
aa(lp1297
I0
aI166
aI390
aI461
aI640
aI826
aI1006
aI1204
aI1335
aI1490
aI1584
aI1747
aI1822
aI1938
aI2098
aI2568
aI2635
aI2721
aI2823
aa(lp1298
I0
aI162
aI278
aI362
aI515
aa(lp1299
I0
aI205
aI325
aI404
aI500
aI676
aI828
aI948
aI1144
aI1401
aa(lp1300
I0
aI128
aI218
aI331
aI500
aI557
aI725
aI801
aI993
aI1102
aI1324
aI1566
aa(lp1301
I0
aI193
aI336
aI449
aI576
aI661
aI825
aa(lp1302
I0
aI193
aI351
aI475
aI572
aI706
aI827
aI923
aI1062
aI1170
aI1355
aI1447
aI1533
aI1608
aI1692
aI1807
aI2160
aI2213
aI2402
aI2538
aI2618
aI2791
aI2978
aI3101
aI3310
aI3526
aa(lp1303
I0
aI233
aI600
aI678
aI784
aI1143
aI1289
aI1429
aI1619
aI1806
aI2013
aI2214
aI2352
aI2617
aI2757
aI3393
aa(lp1304
I0
aI163
aI288
aI433
aI561
aa(lp1305
I0
aI121
aI289
aI395
aI447
aI544
aI719
aI851
aI1008
aI1097
aa(lp1306
I0
aI164
aI357
aI482
aI587
aI644
aI778
aI864
aI952
aI1030
aI1176
aI1292
aI1421
aI1482
aI1686
aa(lp1307
I0
aI198
aI375
aI536
aI620
aI702
aI775
aI937
aI1098
aI1240
aI1403
aI1689
aI1851
aI2092
aI2218
aI2320
aa(lp1308
I0
aI148
aI257
aI441
aI566
aI701
aI830
aI885
aI957
aI1014
aa(lp1309
I0
aI149
aI268
aI437
aI569
aI656
aI761
aI887
aI964
aI1053
aI1175
aa(lp1310
I0
aI124
aI315
aI441
aI576
aI672
aI792
aI885
aI1026
aI1142
aI1258
aI1401
aI1556
aI1662
aa(lp1311
I0
aI118
aI218
aI307
aI414
aI495
aI575
aI650
aI728
aa(lp1312
I0
aI163
aI281
aI344
aI483
aI586
aI686
aI853
aI975
aI1074
aI1232
aI1406
aI1542
aI1637
aI1743
aI1905
aI1922
aI1947
aI1981
aI2077
aI2240
aa(lp1313
I0
aI239
aI384
aI532
aI632
aa(lp1314
I0
aI109
aI204
aI251
aI389
aI459
aI616
aI671
aI880
aI1022
aa(lp1315
I0
aI96
aI231
aI406
aI526
aI710
aa(lp1316
I0
aI136
aI242
aI360
aI562
aI616
aI759
aI860
aI983
aI1112
aa(lp1317
I0
aI87
aI117
aI546
aI653
aI779
aI827
aI987
aI1133
aI1250
aI1421
aI1596
aI1747
aI1901
aI1998
aa(lp1318
I0
aI127
aI237
aI371
aI539
aI704
aI717
aI819
aa(lp1319
I0
aI100
aI142
aI238
aI294
aI401
aI617
aI780
aa(lp1320
I0
aI166
aI355
aI505
aI736
aI897
aI1094
aI1212
aI1374
aa(lp1321
I0
aI205
aI362
aI510
aI686
aI813
aI1008
aI1160
aI1347
aI1514
aa(lp1322
I0
aI263
aI397
aI684
aI753
aI954
aI1184
aa(lp1323
I0
aI178
aI305
aI580
aI756
aI866
aI1074
aI1487
aa(lp1324
I0
aI70
aI158
aI468
aI687
aI828
aI920
aa(lp1325
I0
aI293
aI461
aI509
aI765
aI934
aI1107
aI1337
aI1498
aa(lp1326
I0
aI57
aI121
aI289
aI463
aI653
aI786
aI930
aI1121
aI1295
aI1425
aI1568
aI1694
aa(lp1327
I0
aI188
aI307
aI530
aI673
aI751
aa(lp1328
I0
aI100
aI267
aI319
aI485
aI568
aI847
aI916
aI1113
aa(lp1329
I0
aI75
aI249
aI352
aI491
aI617
aI786
aI880
aI1176
aI1273
aI1443
aI1569
aI1702
aI1888
aI2097
aI2229
aI2344
aI2498
aa(lp1330
I0
aI231
aI331
aI488
aI593
aI721
aI830
aI992
aI1086
aI1223
aI1327
aI1478
aI1540
aI1641
aI1711
aI1801
aI1930
aI2035
aI2128
aI2257
aI2365
aI2534
aI2625
aI2742
aI2887
aI3037
aI3133
aI3295
aI3370
aI3486
aI3657
aI3813
aI3897
aI4552
aa(lp1331
I0
aI181
aI374
aI560
aI669
aI741
aa(lp1332
I0
aI127
aI272
aI413
aI461
aI594
aI680
aI798
aI875
aI961
aI1105
aI1189
aI1295
aa(lp1333
I0
aI147
aI317
aI399
aI519
aI721
aI893
aI983
aI1182
aI1401
aI1600
aI1781
aI1989
aI2239
aa(lp1334
I0
aI112
aI187
aI344
aI472
aI616
aI771
aI825
aI1018
aI1074
aI1162
aI1283
aI1414
aI1517
aI1638
aI1751
aI1886
aI2015
aI2225
aI2362
aI2534
aI2672
aI2757
aI2845
aI3210
aa(lp1335
I0
aI163
aI257
aI377
aa(lp1336
I0
aI103
aI172
aI402
aI585
aI752
aI852
aI971
aa(lp1337
I0
aI168
aI459
aI696
aa(lp1338
I0
aI126
aI281
aI467
aI566
aI646
aI753
aI916
aI1064
aI1192
aI1286
aI1448
aI1603
aI1689
aI1892
aI1950
aa(lp1339
I0
aI178
aI380
aI601
aI668
aa(lp1340
I0
aI201
aI328
aI424
aI698
aa(lp1341
I0
aI176
aI516
aI623
aI895
aI1048
aI1281
aI1419
aI1557
aI1706
aa(lp1342
I0
aI191
aI438
aI503
aI622
aI913
aI971
aI1227
aI1323
aI1494
aa(lp1343
I0
aI322
aI521
aI708
aI868
aI1040
aI1137
aI1380
aI1575
aI1821
aI1958
aI2081
aI2218
aI2348
aI2481
aI2625
aI2750
aI2829
aI2950
aI3118
aI3196
aI3292
aI3460
aI3561
aI3712
aa(lp1344
I0
aI299
aI435
aI619
aI725
aI988
aa(lp1345
I0
aI220
aI333
aI441
aI568
aI613
aI750
aI871
aI980
aa(lp1346
I0
aI131
aI381
aI739
aa(lp1347
I0
aI43
aI146
aI254
aI371
aI407
aI492
aI661
aI849
aI1023
aI1067
aI1165
aI1292
aa(lp1348
I0
aI221
aI342
aI469
aI587
aI758
aI1021
aI1115
aI1200
aI1445
aI1529
aI1653
aI1763
aI1905
aI1950
aa(lp1349
I0
aI132
aI333
aI386
aI517
aI661
aa(lp1350
I0
aI139
aI291
aI443
aI509
aI843
aI985
aI1215
aI1339
aI1403
aI1670
aI1858
aI2024
aI2104
aI2227
aI2350
aI2477
aa(lp1351
I0
aI218
aI350
aI549
aI596
aI732
aI846
aa(lp1352
I0
aI240
aI420
aI512
aI651
aI855
aI923
aa(lp1353
I0
aI182
aI252
aI375
aI438
aI572
aI715
aI871
aI1067
aI1192
aI1305
aI1424
aI1491
aa(lp1354
I0
aI161
aI349
aI560
aa(lp1355
I0
aI99
aI213
aI382
aI511
aI636
aI792
aI924
aI1114
aI1284
aI1369
aI1520
aI1591
aI2227
aa(lp1356
I0
aI156
aI329
aI490
aI724
aI870
aI950
aI1008
aa(lp1357
I0
aI70
aI217
aI347
aI472
aI594
aI767
aI904
aI951
aI1045
aI1178
aa(lp1358
I0
aI156
aI232
aI321
aI412
aI545
aI595
aI747
aa(lp1359
I0
aI154
aI385
aI540
aI613
aI823
aI939
aI1285
aI1473
aI1560
aI1713
aI1884
aI1980
aI2081
aI2191
aI2217
aI2309
aI2378
aa(lp1360
I0
aI124
aI241
aI391
aI494
aa(lp1361
I0
aI264
aI376
aI491
aI706
aa(lp1362
I0
aI288
aI583
aI666
aI988
aI1146
aI1318
aI1630
aI1927
aI2021
aa(lp1363
I0
aI361
aI528
aI718
aI894
aI1020
aI1152
aI1409
aa(lp1364
I0
aI303
aI502
aI666
aI831
aa(lp1365
I0
aI130
aI537
aI641
aI810
aa(lp1366
I0
aI153
aI489
aI614
aI817
aI971
aI1159
aI1639
aI1845
aI1962
aa(lp1367
I0
aI311
aI558
aI793
aI887
aI1031
aI1159
aI1436
aI1671
aI1961
aI2131
aI2315
aI2468
aI2727
aa(lp1368
I0
aI223
aI373
aI485
aI638
aI796
aI965
aa(lp1369
I0
aI133
aI323
aI419
aa(lp1370
I0
aI128
aI248
aI316
aI588
aI755
aI910
aI1043
aa(lp1371
I0
aI173
aI282
aI377
aI518
aI617
aI733
aI824
aI966
aI1100
aI1214
aI1295
aa(lp1372
I0
aI176
aI333
aI442
aI544
aI732
aI876
aI1016
aI1096
aI1325
aI1438
aI1544
aI1604
aa(lp1373
I0
aI95
aI252
aI352
aI503
aI549
aI730
aI876
aI956
aI1047
aI1257
aI1399
aI1532
aI1612
aI1730
aI1889
aI1963
aI2034
aa(lp1374
I0
aI146
aI265
aI399
aI481
aI670
aI766
aI893
aI1069
aI1226
aI1433
aI1650
aI1756
aI1903
aI2000
aI2139
aI2249
aI2309
aI2544
aI2707
aa(lp1375
I0
aI234
aI416
aI556
aI624
aI713
aI841
aI994
aI1171
aI1337
aI1476
aI1557
aI1743
aI1854
aI2020
aa(lp1376
I0
aI209
aI267
aI388
aI505
aI620
aI735
aa(lp1377
I0
aI315
aI455
aI715
aI810
aI980
aI1108
aa(lp1378
I0
aI123
aI282
aI421
aI527
aa(lp1379
I0
aI107
aI177
aI339
aI504
aI763
aI827
aI900
aI1091
aI1430
aI1615
aI1790
aI1901
aa(lp1380
I0
aI175
aI296
aI428
aI504
aI632
aa(lp1381
I0
aI105
aI248
aI380
aI422
aI556
aI705
aI777
aI828
aa(lp1382
I0
aI69
aI195
aI262
aI418
aI462
aI536
aI687
aI861
aI920
aI1023
aI1104
aI1340
aI1391
aa(lp1383
I0
aI107
aI249
aI381
aI449
aI537
aI649
aI725
aI870
aI978
aI1049
aI1127
aI1278
aa(lp1384
I0
aI146
aI309
aI445
aI536
aa(lp1385
I0
aI222
aI331
aI413
aI531
aI636
aI853
aI967
aa(lp1386
I0
aI93
aI360
aI620
aI732
aI910
aI984
aI1099
aa(lp1387
I0
aI85
aI221
aI300
aI469
aI627
aI862
aI969
aI1123
aI1308
aI1471
aI1638
aI1774
aI1902
aI2139
aI2236
aI2355
aI2484
aI2536
aa(lp1388
I0
aI138
aI429
aI548
aI690
aI820
aI933
aI1144
aI1260
aI1352
aa(lp1389
I0
aI157
aI331
aI414
aI512
aI670
aI793
aI923
aI1004
aI1097
aI1211
aI1307
aI1356
aI1435
aI1527
aI1690
aI1760
aI1819
aI1899
aI1959
aI2126
aa(lp1390
I0
aI180
aI358
aI529
aI722
aI839
aa(lp1391
I0
aI104
aI278
aI398
aI527
aI645
aI821
aI936
aI1038
aI1127
aI1298
aI1401
aI1519
aa(lp1392
I0
aI176
aI333
aI441
aI565
aI699
aI776
aa(lp1393
I0
aI134
aI355
aI519
aI585
aI644
aa(lp1394
I0
aI121
aI271
aI427
aI567
aI624
aI704
aI900
aI1046
aa(lp1395
I0
aI70
aI245
aI415
aI555
aI639
aI770
aI903
aI988
aI1141
aI1335
aI1466
aI1548
aI1687
aI1812
aI1995
aI2857
aa(lp1396
I0
aI157
aI268
aI550
aI684
aI778
aI944
aI1109
aa(lp1397
I0
aI206
aI329
aI421
aI658
aa(lp1398
I0
aI281
aI432
aI591
aI771
aI1015
aI1226
aa(lp1399
I0
aI346
aI474
aI637
aI803
aI1018
aI1207
aI1433
aI1635
aI1776
aa(lp1400
I0
aI210
aI635
aI904
aI1484
aa(lp1401
I0
aI158
aI219
aI327
aI539
aI747
aI1053
aI1255
aa(lp1402
I0
aI173
aI366
aI521
aI716
aI949
aa(lp1403
I0
aI75
aI231
aI296
aI451
aI604
aI773
aI867
aI1030
aI1074
aI1245
aI1343
aI1436
aI1555
aI1763
aI1863
aI1925
aa(lp1404
I0
aI151
aI290
aI504
aI693
aa(lp1405
I0
aI154
aI230
aI390
aI507
aI701
aI813
aI957
aI1062
aI1162
aI1240
aI1412
aa(lp1406
I0
aI110
aI284
aI444
aI523
aI689
aI921
aI1059
aa(lp1407
I0
aI184
aI272
aI401
aI602
aI657
aI717
aI834
aI933
aI1054
aI1236
aI1358
aI1568
aI1669
aI1906
aI2108
aI2308
aa(lp1408
I0
aI122
aI263
aI458
aI549
aa(lp1409
I0
aI78
aI178
aI260
aI299
aI380
aI420
aa(lp1410
I0
aI118
aI224
aI331
aI422
aI511
aa(lp1411
I0
aI181
aI216
aI289
aI390
aI442
aI574
aI636
aI741
aa(lp1412
I0
aI125
aI287
aI410
aI459
aI532
aI615
aI732
aI806
aa(lp1413
I0
aI147
aI298
aI496
aa(lp1414
I0
aI124
aI395
aI690
aI827
aI959
aI1018
aI1186
aI1428
aa(lp1415
I0
aI199
aI419
aI517
aI862
aI945
aa(lp1416
I0
aI242
aI531
aI642
aa(lp1417
I0
aI78
aI242
aI326
aa(lp1418
I0
aI221
aI358
aI434
aI513
aI600
aI673
aa(lp1419
I0
aI107
aI250
aI328
aI452
aI567
aa(lp1420
I0
aI153
aI278
aI397
aa(lp1421
I0
aI42
aI188
aI324
aI539
aI598
aI673
aI836
aI1005
aI1096
aI1201
aa(lp1422
I0
aI104
aI242
aI359
aI431
aI528
aI661
aI725
aI798
aI1014
aI1107
aI1223
aI1358
aI1507
aI1697
aI1815
aa(lp1423
I0
aI127
aI167
aI356
aI477
aI623
aI787
aI951
aI1084
aI1177
aI1290
aI1443
aI1572
aI1705
aI1766
aI1888
aI2055
aa(lp1424
I0
aI213
aI389
aI484
aI612
aI670
aI772
aI1007
aI1114
aI1356
aI1410
aa(lp1425
I0
aI109
aI266
aI580
aa(lp1426
I0
aI175
aI402
aI516
aI786
aI1015
aI1115
aI1267
aI1434
aI1583
aI1789
aa(lp1427
I0
aI248
aI316
aI463
aI660
aI840
aI941
aI1141
aI1299
aI1631
aI1815
aI2079
aI2338
aI2521
aI2711
aI2971
aa(lp1428
I0
aI195
aI421
aI638
aI723
aI862
aI990
aI1116
aa(lp1429
I0
aI162
aI245
aI452
aI573
aI698
aI772
aI927
aI1134
aI1246
aI1313
aI1524
aI1597
aI1720
aI1820
aI1933
aI2066
aI2239
aI2299
aI2457
aa(lp1430
I0
aI116
aI222
aI386
aI471
aI600
aI764
aI880
aI993
aI1172
aI1383
aI1459
aI1502
aI1583
aa(lp1431
I0
aI90
aI146
aI283
aI457
aI534
aI640
aI822
aI988
aI1124
aI1230
aI1304
aI1420
aI1627
aI1792
aI1862
aI2028
aI2139
aI2275
aI2378
aI2506
aI2640
aI2684
aI2817
aa(lp1432
I0
aI72
aI123
aI796
aI910
aI1030
aI1124
aI1247
aI1400
aI1496
aI1616
aI1708
aI1843
aI1895
aI2016
aI2110
aI2370
aa(lp1433
I0
aI172
aI418
aI585
aI811
aI976
aa(lp1434
I0
aI52
aI177
aI262
aI348
aI458
aI745
aI899
aI998
aI1111
aI1204
aI1289
aI1376
aI1510
aI1584
aI1671
aI1793
aI1905
aI2007
aa(lp1435
I0
aI186
aI374
aI558
aa(lp1436
I0
aI183
aI275
aI393
aI494
aI616
aI790
aI852
aI895
aI1021
aI1179
aI1354
aI1404
aI1538
aI1627
aI1805
aI2417
aa(lp1437
I0
aI152
aI232
aI371
aI479
aI601
aI717
aI834
aI982
aa(lp1438
I0
aI132
aI226
aI312
aI445
aI598
aI710
aI776
aa(lp1439
I0
aI226
aI306
aI459
aI536
aI726
aI888
aI1080
aI1186
aI1377
aI1533
aa(lp1440
I0
aI122
aI185
aI305
aI363
aI497
aI547
aI735
aI866
aI1015
aI1499
aI1646
aI1800
aI1927
aI1996
aI2706
aa(lp1441
I0
aI156
aI366
aI524
aI582
aI759
aa(lp1442
I0
aI93
aI224
aI380
aI481
aI523
aI671
aI801
aa(lp1443
I0
aI163
aI392
aI540
aI750
aI999
aa(lp1444
I0
aI178
aI269
aI340
aI468
aI562
aI653
aI767
aI846
aI903
aI1047
aI1137
aI1200
aI1341
aI1417
aI1501
aI1630
aI1720
aI1820
aI1882
aa(lp1445
I0
aI119
aI267
aI526
aI636
aa(lp1446
I0
aI227
aI337
aI447
aI532
aI709
aI776
aI886
aI1017
aI1052
aI1164
aI1362
aI1547
aI1702
aI1730
aa(lp1447
I0
aI79
aI309
aI430
aI572
aI718
aa(lp1448
I0
aI227
aI333
aI420
aI498
aI581
aI820
aI1107
aI1320
aI1470
aI1661
aI1749
aI1944
aI2144
aI2296
aI2459
aI2655
aI2733
aI2822
aI2950
aI3035
aI3165
aI3230
aI3365
aa(lp1449
I0
aI192
aI384
aI544
aI997
aI1137
aI1272
aI1399
aI1473
aI1595
aI1673
aI1792
aI1845
aI1959
aI2052
aI2168
aI2281
aI2372
aa(lp1450
I0
aI112
aI279
aI410
aI520
aI638
aI675
aI739
aI824
aI869
aa(lp1451
I0
aI129
aI265
aI387
aI481
aI614
aI754
aa(lp1452
I0
aI172
aI402
aI473
aI524
aI647
aI893
aI1064
aa(lp1453
I0
aI154
aI243
aI433
aI539
aI621
aI759
aI869
aI927
aI981
aI1033
aI1080
aI1163
aI1232
aI1335
aI1448
aI1498
aI1601
aI2270
aa(lp1454
I0
aI276
aI529
aa(lp1455
I0
aI63
aI145
aI233
aI335
aI387
aI490
aI575
aI697
aI728
aI815
aa(lp1456
I0
aI92
aI248
aI298
aI489
aI692
aI847
aI914
aI999
aI1133
aI1314
aI1448
aI1585
aI1701
aI1803
aI1935
aI2061
aI2148
aI2412
aI2594
aI2743
aI2892
aI2978
aI3129
aI3427
aI3468
aI3580
aI3669
aI3716
aI3780
aa(lp1457
I0
aI100
aI235
aI440
aI633
aI733
aI909
aI1050
aI1122
aI1331
aI1544
aI1695
aI1765
aI1859
aI2046
aI2086
aI2433
aI2540
aa(lp1458
I0
aI160
aI829
aI975
aI1260
aI1334
aI1490
aI1727
aI1895
aI2056
aI2372
aI2459
aI2630
aI2795
aI2959
aI3026
aa(lp1459
I0
aI170
aI294
aI424
aI633
aa(lp1460
I0
aI102
aI236
aI444
aI627
aI799
aI847
aI945
aI1079
aI1269
aI1362
aa(lp1461
I0
aI120
aI332
aI445
aI712
aa(lp1462
I0
aI156
aI256
aI359
aI538
aI620
aI761
aa(lp1463
I0
aI147
aI335
aI452
aa(lp1464
I0
aI222
aI274
aI416
aI554
aI673
aa(lp1465
I0
aI128
aI320
aI478
aI794
aI1016
aI1090
aI1327
aa(lp1466
I0
aI158
aI348
aI508
aI655
aI826
aI988
aI1119
aI1228
aI1396
aI1588
aI1866
aI1970
aI2066
aI2161
aI2321
aI2393
aI3182
aa(lp1467
I0
aI214
aI339
aI574
aI716
aI906
aI1026
aa(lp1468
I0
aI106
aI243
aI346
aI467
aI516
aI577
aa(lp1469
I0
aI128
aI380
aI607
aI708
aI870
aI915
aI1044
aI1154
aI1257
aI1456
aI1579
aI1692
aI1882
aI2055
aI2162
aI2317
aI2445
aI2545
aI2649
aI2718
aI2846
aI2895
aI3012
aI3209
aI3370
aa(lp1470
I0
aI125
aI225
aI370
aI470
aI513
aI691
aI758
aI924
aI988
aI1088
aI1237
aI1354
aI1485
aI1583
aI1647
aI1781
aa(lp1471
I0
aI88
aI284
aI368
aI878
aI1009
aI1147
aI1228
aI1316
aI1484
aI1652
aI1778
aI1833
aI1918
aa(lp1472
I0
aI138
aI175
aI369
aI466
aI636
aI757
aa(lp1473
I0
aI335
aI543
aa(lp1474
I0
aI155
aI275
aI303
aI593
aI650
aI787
aI860
aI978
aI1132
aI1220
aI1408
aI1612
aI1835
aI1976
aI2111
aI2222
aI2354
aI2464
aI2596
aI2699
aa(lp1475
I0
aI157
aI286
aI387
aI520
aI702
aI916
aI1100
aI1259
aI1333
aI1441
aI1545
aa(lp1476
I0
aI60
aI134
aI311
aI505
aI754
aI916
aI1030
aI1199
aa(lp1477
I0
aI86
aI170
aI315
aI419
aI545
aI718
aI871
aI1052
aI1234
aa(lp1478
I0
aI126
aI192
aI355
aI396
aI522
aI731
aa(lp1479
I0
aI185
aI353
aI454
aI585
aI713
aI822
aa(lp1480
I0
aI93
aI198
aI256
aI309
aI439
aI527
aI632
aI708
aI775
aI917
aI1103
aI1254
aI1389
aI1539
aI1686
aI1784
aI1932
aI2009
aa(lp1481
I0
aI154
aI297
aI505
aI804
aI964
aI1019
aI1142
aI1319
aa(lp1482
I0
aI105
aI185
aI317
aI454
aI598
aI664
aI731
aI828
aI916
aI996
aa(lp1483
I0
aI88
aI128
aI179
aI320
aI409
aI533
aI814
aI943
aI1016
aI1089
aa(lp1484
I0
aI120
aI277
aI415
aI572
aI712
aI849
aI921
aI1063
aI1165
aI1221
aI1301
aI1506
aI1712
aI1782
aI1882
aI1944
aI2050
aI2130
aI2743
aa(lp1485
I0
aI178
aI301
aa(lp1486
I0
aI95
aI277
aI411
aI449
aI506
aI657
aI797
aI947
aI1023
aI1110
aI1217
aI1326
aa(lp1487
I0
aI59
aI139
aI304
aI474
aI696
aI741
aI781
aI917
aI1062
aI1203
aI1331
aI1398
aI1611
aI1755
aI1938
aI2079
aI2147
aI2212
aI2381
aI2527
aI2603
aI2669
aI2739
aI2799
aI2959
aI3066
aI3138
aI3344
aI3417
aa(lp1488
I0
aI84
aI199
aI280
aI454
aI551
aI655
aI713
aI810
aI919
aI1001
aI1049
aa(lp1489
I0
aI211
aI289
aI344
aI1008
aI1086
aI1174
aI1261
aI1411
aI1572
aI1641
aI1763
aI1904
aI1991
aI2104
aI2250
aI2316
aa(lp1490
I0
aI173
aI301
aI423
aI544
aI615
aa(lp1491
I0
aI166
aI266
aa(lp1492
I0
aI206
aI315
aI369
aI488
aI641
aI756
aI858
aI920
aI1045
aI1173
aa(lp1493
I0
aI137
aI291
aI424
aI525
aI669
aI758
aI850
aI942
aI1014
aI1131
aa(lp1494
I0
aI148
aI201
aI297
aI483
aI625
aa(lp1495
I0
aI74
aI205
aI359
aI487
aI611
aI732
aa(lp1496
I0
aI81
aI197
aI246
aI434
aI592
aI690
aI809
aI973
aI1178
aI1325
aa(lp1497
I0
aI90
aI194
aI371
aI463
aI567
aI672
aI812
aI1056
aI1205
aI1336
aI1446
aI1548
aa(lp1498
I0
aI138
aI194
aI297
aI864
aI935
aI1025
aI1180
aI1348
aI1487
aI1599
aI1681
aI1769
aI1859
aa(lp1499
I0
aI135
aI281
aI471
aI577
aI735
aI780
aI891
aI999
aI1079
aa(lp1500
I0
aI113
aI187
aI360
aI441
aI699
aa(lp1501
I0
aI165
aI280
aI374
aI480
aI592
aI665
aI784
aI1264
aa(lp1502
I0
aI173
aI374
aI551
aI705
aI780
aa(lp1503
I0
aI106
aI250
aI364
aI530
aI649
aI887
aI967
aI1697
aa(lp1504
I0
aI194
aI301
aI399
aI515
aI631
aI849
aI1000
aa(lp1505
I0
aI98
aI232
aI413
aa(lp1506
I0
aI182
aI354
aI528
aI654
aI891
aI1028
aI1191
aI1486
aI1632
aa(lp1507
I0
aI165
aI291
aI380
aa(lp1508
I0
aI124
aI286
aI439
aI522
aI636
aI776
aa(lp1509
I0
aI125
aI284
aI432
aI618
aI751
aI867
aI1003
aI1110
aa(lp1510
I0
aI174
aI375
aI567
aI749
aI848
aI1003
aI1211
aI1322
aI1440
aI1563
aI1663
aI1766
aI1869
aa(lp1511
I0
aI181
aI218
aI435
aI502
aI535
aI624
aI1002
aI1079
aI1187
aI1432
aI1474
aI1557
aI1634
aI1740
aI1805
aa(lp1512
I0
aI99
aI170
aI231
aI276
aI366
aa(lp1513
I0
aI76
aI137
aI251
aI294
aI440
aI534
aI611
aI728
aI900
aI1034
aI1199
aI1247
aI1346
aa(lp1514
I0
aI122
aI223
aI400
aI511
aI628
aI682
aI923
aa(lp1515
I0
aI229
aI348
aI565
aI673
aI803
aI850
aI955
aI1100
aI1261
aI1403
aI1544
aI1650
aI1769
aI1848
aI1920
aI2033
aI2162
aI2313
aI2423
aI2476
aI2616
aI2795
aI2895
aa(lp1516
I0
aI332
aI364
aI482
aI807
aI988
aI1170
aI1217
aI1362
aI1418
aI2013
aa(lp1517
I0
aI135
aI315
aI396
aI570
aI691
aI774
aI949
aI1065
aI1196
aI1326
aI1555
aI1673
aI1771
aI1906
aI2017
aI2178
aI2247
aI2330
aI2401
aa(lp1518
I0
aI102
aI257
aI335
aI551
aI614
aI673
aI773
aI876
aI943
aa(lp1519
I0
aI151
aI349
aI559
aI698
aI938
aI1043
aI1143
aI1230
aI1309
aI1427
aI1518
aI1598
aI1700
aI1815
aa(lp1520
I0
aI79
aI233
aI380
aI584
aI707
aI834
aI1000
aI1077
aI1166
aI1247
aI1368
aI1486
aI1571
aI1704
aI1823
aI1891
aI2063
aI2171
aI2272
aI2409
aI2463
aa(lp1521
I0
aI89
aI163
aI473
aI567
aI681
aI796
aI953
aI1102
aI1230
aI1288
aI1468
aI1591
aI1732
aa(lp1522
I0
aI47
aI181
aI358
aI393
aa(lp1523
I0
aI163
aI345
aI480
aI612
aI733
aI889
aa(lp1524
I0
aI97
aI275
aI543
aI628
aI712
aI884
aa(lp1525
I0
aI208
aI317
aI436
aI475
aI582
aI752
aI933
aI1067
aI1164
aI1325
aI1378
aI1470
aI1583
aI1786
aI1914
aI2076
aI2231
aI2289
aI2473
aI2596
aI2756
aI2839
aI2920
aa(lp1526
I0
aI116
aI259
aI441
aI779
aI877
aI988
aI1095
aI1113
aI1218
aI1364
aI1438
aI1581
aI1664
aI1778
aI1864
aa(lp1527
I0
aI276
aI532
aI623
aI781
aI844
aI957
aI1301
aI1388
aI1501
aa(lp1528
I0
aI124
aI202
aI227
aI318
aI424
aI538
aa(lp1529
I0
aI167
aI281
aI386
aI493
aI600
aI760
aI914
aI1037
aa(lp1530
I0
aI129
aI254
aI389
aI531
aI778
aI893
aI936
aI1003
aI1125
aa(lp1531
I0
aI111
aI214
aI357
aI619
aI713
aI827
aI1006
aI1191
aI1248
aI1456
aa(lp1532
I0
aI158
aI307
aI417
aI466
aa(lp1533
I0
aI135
aI292
aI390
aa(lp1534
I0
aI208
aI324
aI567
aI743
aI858
aI922
aa(lp1535
I0
aI185
aI288
aI411
aI545
aI695
aI765
aI860
aI980
aI1107
aI1220
aI1337
aI1460
aI1576
aI1788
aI1978
aa(lp1536
I0
aI123
aI469
aI581
aa(lp1537
I0
aI181
aI342
aI477
aa(lp1538
I0
aI200
aI390
aI501
aI605
aI755
aI804
aI944
aI1105
aI1204
aI1322
aI1420
aI1556
aI1705
aI1769
aa(lp1539
I0
aI158
aI332
aI482
aI622
aI747
aI892
aI1063
aI1228
aI1306
aI1449
aa(lp1540
I0
aI190
aI413
aI557
aI768
aI892
aI922
aI1008
aI1067
aI1209
aI1271
aI1420
aI1503
aI1560
aI1669
aI1828
aI1896
aI1978
aI2133
aI2191
aI2251
aI2356
aI2465
aI2583
aI2778
aa(lp1541
I0
aI514
aI648
aI834
aa(lp1542
I0
aI190
aI299
aI423
aI575
aI699
aI849
aa(lp1543
I0
aI94
aI255
aI399
aa(lp1544
I0
aI177
aI302
aI409
aI509
aa(lp1545
I0
aI178
aI254
aI360
aI626
aI891
aI1082
aI1132
aI1262
aI1346
aI1579
aI1677
aI1840
aI1956
aI2237
aI2439
aI2560
aI2655
aI2721
aI2802
aa(lp1546
I0
aI387
aI487
aI579
aI716
aI920
aa(lp1547
I0
aI131
aI202
aI342
aa(lp1548
I0
aI123
aI282
aI387
aI534
aI672
aI771
aI958
aI1113
aa(lp1549
I0
aI151
aI287
aI603
aI744
aI873
aI972
aI1093
aI1307
aI1402
aI1450
aI1521
aI1629
aI1775
aI1922
aI2087
aI2267
aI2402
aI2640
aa(lp1550
I0
aI191
aI323
aI470
aI581
aI753
aI920
aI1162
aI1266
aI1525
aI1694
aI1768
aI1922
aI2073
aI2141
aI2256
aa(lp1551
I0
aI202
aI522
aI837
aI943
aI1079
aI1158
aI1330
aI1385
aI1691
aI1831
aI2033
aa(lp1552
I0
aI126
aI266
aI449
aI631
aI690
aI851
aa(lp1553
I0
aI171
aI333
aI500
aI547
aI658
aI873
aI1024
aI1231
aa(lp1554
I0
aI130
aI306
aI391
aI514
aI641
aI806
aa(lp1555
I0
aI200
aI421
aI570
aI694
aI828
aI1025
aI1232
aI1370
aI1485
aI1674
aI1792
aI1863
aa(lp1556
I0
aI421
aI537
aI621
aI800
aI892
aI969
aI1050
aI1504
aa(lp1557
I0
aI110
aI212
aI396
aa(lp1558
I0
aI69
aI195
aI341
aI469
aI603
aI639
aI731
aI811
aI897
aa(lp1559
I0
aI93
aI237
aI352
aI515
aI580
aI645
aI704
aI857
aI1021
aI1356
aI1505
aI1612
aI1779
aI1871
aa(lp1560
I0
aI243
aI418
aI510
aI603
aI728
aI860
aI1030
aI1118
aI1192
aI1310
aI1405
aI1559
aI1625
aI1784
aI1893
aI1986
aI2062
aI2138
aI2190
aI2324
aI2422
aI2469
aI2599
aI2773
aI2917
aI3064
aI3146
aI3278
aI3320
aI3424
aa(lp1561
I0
aI324
aI380
aI513
aI652
aI793
aI917
aI1046
aI1122
aI1385
aI1519
aI1656
aI1797
aI1954
aI2017
aI2077
aI2196
aI2369
aI2479
aI2608
aI2692
aI2840
aI2912
aa(lp1562
I0
aI179
aI265
aI400
aI512
aI814
aa(lp1563
I0
aI180
aI321
aI527
aI641
aI665
aI818
aI883
aI1113
aI1174
aI1285
aI1463
aI1600
aI1758
aI1838
aa(lp1564
I0
aI113
aI265
aI399
aI516
aI642
aI866
aI986
aI1152
aI1230
aI1293
aa(lp1565
I0
aI157
aI381
aI603
aI676
aI871
aI1016
aI1071
aI1172
aI1294
aI1449
aI1575
aI1816
aI1876
aI2070
aI2111
aI2201
aI2293
aI2350
aa(lp1566
I0
aI527
aI622
aI695
aI797
aI847
aI1018
aI1097
aI1183
aI1293
aI1798
aa(lp1567
I0
aI185
aI307
aI427
aI525
aI674
aI739
aI838
aI918
aI1020
aI1163
aI1282
aI1416
aI1532
aI1623
aa(lp1568
I0
aI66
aI215
aa(lp1569
I0
aI122
aI181
aI363
aI487
aI550
aa(lp1570
I0
aI115
aI274
aI408
aI521
aI649
aI855
aI1022
aI1153
aI1234
aI1379
aa(lp1571
I0
aI91
aI187
aI545
aI690
aa(lp1572
I0
aI97
aI195
aI392
aI480
aI600
aI805
aI1016
aI1294
aI1446
aI1531
aI1599
aa(lp1573
I0
aI190
aI240
aI461
aI553
aI741
aI891
aI956
aI999
aI1046
aI1185
aI1328
aI1377
aI1441
aI1558
aI1615
aI1751
aI2054
aa(lp1574
I0
aI143
aI263
aI477
aI636
aI781
aI971
aI1099
aI1298
aI1513
aI1591
aI1681
aI1819
aa(lp1575
I0
aI126
aI257
aI439
aI571
aI671
aI732
aI848
aI1048
aI1253
aI1406
aI1563
aI1691
aI1898
aI2012
aa(lp1576
I0
aI81
aI176
aI269
aI478
aI663
aI796
aI928
aI1148
aI1343
aI1521
aI1596
aI1748
aa(lp1577
I0
aI136
aI206
aI287
aI363
aI561
aI675
aa(lp1578
I0
aI113
aI254
aI393
aI524
aI700
aI765
aa(lp1579
I0
aI129
aI221
aI400
aI542
aI589
aI777
aa(lp1580
I0
aI118
aI306
aI399
aI556
aI761
aI869
aI1030
aI1185
aI1269
aI1454
aI1658
aI1736
aa(lp1581
I0
aI119
aI308
aI422
aI484
aI592
aI973
aI1048
aI1124
aI1333
aI1462
aI1577
aI1636
aI1746
aI1811
aI1901
aI2039
aa(lp1582
I0
aa(lp1583
I0
aI141
aI290
aI377
aI521
aI619
aI730
aI886
aI1030
aI1233
aa(lp1584
I0
aI56
aI305
aI440
aI590
aI698
aI766
aI933
aI1101
aI1183
aI1332
aI1493
aI1708
aa(lp1585
I0
aI93
aI232
aI376
aI486
aI563
aI632
aI739
aI881
aI970
aI1146
aI1223
aI1325
aI1427
aI1489
aI1661
aI1763
aI1835
aa(lp1586
I0
aI165
aI267
aI660
aI789
aI948
aI1024
aI1255
aI1505
aI1695
aI1814
aI1903
aI2142
aI2225
aI2410
aI2547
aI2717
aI2900
aa(lp1587
I0
aI167
aI293
aI460
aI566
aa(lp1588
I0
aI196
aI206
aI398
aI499
aI652
aa(lp1589
I0
aI167
aI304
aI445
aa(lp1590
I0
aI149
aI271
aI341
aI406
aI600
aI703
aI777
aI983
aI1097
aI1246
aI1349
aa(lp1591
I0
aI395
aI757
aI1005
aa(lp1592
I0
aI88
aI171
aI265
aI422
aI675
aI772
aI870
aI978
aI1087
aI1171
aa(lp1593
I0
aI247
aI391
aI463
aI548
aI707
aI862
aI978
aI1115
aI1213
aI1519
aI1700
aI1814
aI1995
aI2100
aI2252
aI2408
aI2563
aa(lp1594
I0
aI159
aI265
aI388
aI488
aI702
aI804
aI907
aI1058
aI1208
aI1461
aI1655
aI1805
aI2091
aI2221
aI2338
aI2483
aa(lp1595
I0
aI336
aI390
aI477
aI652
aI851
aI924
aI999
aI1180
aI1287
aI1384
aI1505
aI1674
aI1795
aI1925
aI2001
aa(lp1596
I0
aI167
aI366
aI537
aI649
aI733
aa(lp1597
I0
aI252
aI513
aI570
aI679
aI812
aI932
aI945
aa(lp1598
I0
aI108
aI242
aI541
aI665
aI754
aa(lp1599
I0
aI91
aI274
aI420
aI525
aI714
aI837
aI1012
aI1049
aI1170
aI1267
aI1366
aI1431
aI1476
aI1587
aI1710
aa(lp1600
I0
aI97
aI221
aI361
aI424
aI454
aI551
aI724
aI1018
aI1082
aI1231
aI1366
aI1476
aI1557
aI1669
aI1738
aI1838
aa(lp1601
I0
aI128
aI223
aI344
aa(lp1602
I0
aI120
aI357
aI610
aI785
aI898
aI1021
aI1123
aa(lp1603
I0
aI133
aI249
aI417
aI502
aI674
aI828
aI887
aI984
aI1168
aI1299
aI1370
aI1472
aI1696
aI1891
aI1991
aI2138
aI2236
aI2464
aI2655
aa(lp1604
I0
aI194
aI363
aI505
aI754
aI957
aI1141
aI1341
aI1411
aI1567
aI1684
aI1867
aI1947
aI2061
aa(lp1605
I0
aI295
aI362
aI543
aI611
aI733
aI981
aI1062
aI1186
aI1288
aI1464
aI1558
aI1723
aI1828
aI2042
aa(lp1606
I0
aI214
aI318
aI451
aI569
aI662
aI845
aI908
aa(lp1607
I0
aI161
aI242
aI359
aI437
aI576
aI771
aa(lp1608
I0
aI113
aI239
aI377
aI496
aI697
aI796
aI847
aI949
aI1073
aI1132
aI1248
aI1314
aI1407
aI1497
aI1631
aa(lp1609
I0
aI170
aI270
aI412
aI473
aI638
aI771
aI956
aI1112
aI1282
aI1386
aI1454
aI1619
aI1736
aI1881
aa(lp1610
I0
aI169
aI317
aI427
aI625
aI853
aI976
aI1044
aI1127
aI1366
aI1522
aa(lp1611
I0
aI143
aI258
aI331
aI453
aa(lp1612
I0
aI170
aI257
aI412
aI515
aI645
aI808
aI990
aa(lp1613
I0
aI107
aI276
aI338
aI522
aI638
aI809
aI928
aI985
aI1390
aI1600
aI1751
aI1870
aI1936
aa(lp1614
I0
aI86
aI196
aI356
aI524
aI617
aI980
aI1325
aI1458
aI1583
aI1720
aI1896
aI1968
aa(lp1615
I0
aI400
aI637
aI840
aI988
aI1080
aI1216
aI1289
aa(lp1616
I0
aI119
aI244
aI463
aa(lp1617
I0
aI133
aI227
aI628
aI800
aI976
aI1152
aI1514
aa(lp1618
I0
aI86
aI189
aI218
aI315
aI629
aI777
aI962
aI1244
aI1380
aI1498
aI1629
aI1720
aa(lp1619
I0
aI113
aI220
aI912
aI1079
aI1213
aI1545
aI1640
aI1753
aI1900
aI2008
aa(lp1620
I0
aI257
aI726
aI838
aI986
aI1099
aI1170
aI1428
aI1533
aI1719
aI1853
aa(lp1621
I0
aI181
aI315
aI493
aI574
aI687
aI769
aa(lp1622
I0
aI110
aI277
aI430
aI499
aI579
aI765
aa(lp1623
I0
aI62
aI203
aI352
aI616
aI793
aI962
aI1153
aI1213
aI1298
aI1456
aI1550
aI1596
aI1734
aI1808
aI1946
aI2117
aI2189
aI2312
aI2371
aI2562
aI2628
aa(lp1624
I0
aI169
aI340
aI398
aI524
aI753
aI952
aI1085
aI1360
aI1447
aI1530
aI1701
aI1848
aI2006
aI2183
aI2290
aI2383
aa(lp1625
I0
aI100
aI923
aI1036
aI1200
aI1321
aI1422
aI1627
aI1792
aI1962
aa(lp1626
I0
aI154
aI347
aI418
aI503
aI659
aa(lp1627
I0
aI130
aI279
aI392
aI453
aI672
aa(lp1628
I0
aI158
aI273
aI399
aI572
aa(lp1629
I0
aI184
aI255
aI371
aI536
aI608
aI780
aI948
aI1080
aI1298
aa(lp1630
I0
aI230
aI308
aI430
aI530
aa(lp1631
I0
aI193
aI303
aI393
aI577
aI711
aa(lp1632
I0
aI160
aI247
aI357
aI561
aI729
aI822
aI1027
aI1181
aa(lp1633
I0
aI54
aI184
aI335
aI543
aI640
aI768
aI1058
aI1171
aI1321
aI1367
aI1504
aI1669
aI1753
aI1919
aa(lp1634
I0
aI216
aI355
aI535
aI769
aa(lp1635
I0
aI279
aI421
aI552
aI602
aI692
aa(lp1636
I0
aI99
aI230
aI341
aI437
aI578
aI886
aI1078
aI1203
aI1300
aI1454
aI1588
aa(lp1637
I0
aI187
aI348
aI457
aI681
aI969
aI1179
aI1354
aI1578
aI1729
aI1831
aI2082
aI2239
aI2273
aa(lp1638
I0
aI184
aI456
aI743
aI846
aI937
aI1096
aI1403
aI1539
aI1691
aa(lp1639
I0
aI188
aI328
aa(lp1640
I0
aI85
aI229
aI366
aI528
aI624
aI703
aI799
aa(lp1641
I0
aI228
aI320
aI473
aI1169
aI1473
aI1728
aI1969
aI2060
aa(lp1642
I0
aI133
aI259
aI402
aI458
aI711
aI944
aI1079
aI1212
aI1473
aI1592
aI1723
aI1898
aI1981
aI2163
aI2328
aI2391
aI2492
aI2654
aI2739
aI2856
aa(lp1643
I0
aI166
aI598
aI755
aI849
aa(lp1644
I0
aI163
aI332
aI479
aI654
aI839
aI936
aI1062
aa(lp1645
I0
aI238
aI411
aI569
aI720
aI921
aI964
aI1079
aI1157
aI1273
aI1405
aI1450
aI1550
aI1612
aa(lp1646
I0
aI90
aI239
aI406
aI603
aI747
aI871
aI1198
aI1344
aI1474
aI1694
aI1907
aI1977
aI2040
aI2161
aa(lp1647
I0
aI121
aI248
aI385
aI524
aI742
aI887
aI1027
aI1184
aI1386
aI1526
aI1639
aI1769
aI1943
aI2077
aI2267
aI2573
aI2732
aI2854
aI3021
aI3131
aI3275
aI3374
aI3494
aI3543
aI3692
aa(lp1648
I0
aI231
aI526
aI701
aI896
aI1031
aI1137
aI1278
aI1369
aI1571
aI1784
aI1862
aI2029
aI2193
aI2271
aI2383
aI2480
aI2612
aa(lp1649
I0
aI153
aI288
aI464
aI535
aI617
aI769
aI949
aI1083
aI1131
aI1359
aI1429
aI1538
aI1687
aI1801
aa(lp1650
I0
aI73
aI192
aI319
aI513
aI674
aI861
aI958
aI1095
aI1203
aI1311
aI1472
aI1547
aa(lp1651
I0
aI182
aI467
aI621
aI712
aI861
aI951
aI1108
aa(lp1652
I0
aI154
aI253
aI392
aI419
aI622
aI743
aI870
aI961
aI1148
aa(lp1653
I0
aI96
aI507
aI682
aI780
aI859
aI997
aI1107
aI1212
aI1462
aI1576
aa(lp1654
I0
aI252
aI448
aa(lp1655
I0
aI169
aI256
aI331
aI445
aI524
aa(lp1656
I0
aI70
aI223
aI456
aI516
aI668
aI779
aI916
aI1026
aI1108
aa(lp1657
I0
aI140
aI315
aI514
aI625
aI693
aI758
aI853
aI968
aI1047
aa(lp1658
I0
aI356
aI528
aI592
aI668
aI823
aI958
aa(lp1659
I0
aI179
aa(lp1660
I0
aI330
aa(lp1661
I0
aI109
aI243
aI409
aI553
aI679
aI875
aI993
aI1240
aa(lp1662
I0
aI149
aI194
aI345
aI456
aI567
aI644
aI765
aI851
aI942
aI1198
aI1337
aa(lp1663
I0
aI619
aI699
aI780
aI919
aa(lp1664
I0
aI218
aa(lp1665
I0
aI140
aI344
aa(lp1666
I0
aI109
aI174
aI229
aI393
aI447
aI577
aa(lp1667
I0
aI90
aI182
aI227
aI369
aI529
aI654
aa(lp1668
I0
aI179
aI295
aI399
aI501
aI568
aI668
aI823
aI921
aI1004
aI1120
aI1202
aI1301
aI1414
aa(lp1669
I0
aI69
aI149
aI271
aI408
aa(lp1670
I0
aI174
aI384
aI464
aI665
aa(lp1671
I0
aI168
aI279
aI429
aI597
aI818
aI933
aI1084
aI1193
aI1367
aa(lp1672
I0
aI110
aI178
aI235
aI425
aI563
aa(lp1673
I0
aI106
aI274
aa(lp1674
I0
aI123
aI308
aI492
aI730
aI824
aI1037
aI1169
aI1394
aI1530
aI1664
aa(lp1675
I0
aI91
aI212
aI356
aI587
aI820
aI989
aI1085
aI1243
aI1317
aa(lp1676
I0
aI206
aI669
aI851
aa(lp1677
I0
aI137
aI316
aa(lp1678
I0
aI105
aI190
aI254
aI404
aI503
aI544
aI705
aI779
aI867
aI936
aI971
aI1166
aI1237
aa(lp1679
I0
aI99
aI254
aI370
aI616
aI756
aI848
aI909
aI968
aI1085
aa(lp1680
I0
aI175
aI274
aI400
aI545
aI661
aI859
aI948
aI1130
aI1255
aI1396
aI1517
aI1714
aI1826
aa(lp1681
I0
aI229
aI590
aI715
aI820
aI968
aI1020
aI1074
aI1254
aI1335
aI1513
aa(lp1682
I0
aI158
aI311
aa(lp1683
I0
aI160
aI335
aI508
aI562
aI739
aI887
aa(lp1684
I0
aI77
aI164
aI358
aI499
aI710
aI882
aI1063
aI1170
aa(lp1685
I0
aI71
aI169
aI283
aI382
aI488
aI572
aI758
aI785
aI834
aI941
aI1078
aI1158
aI1254
aI1341
aI1413
aI1526
aI1644
aa(lp1686
I0
aI87
aI259
aI413
aI500
aI615
aI706
aa(lp1687
I0
aI63
aI224
aI340
aI451
aI576
aI682
aI818
aa(lp1688
I0
aI153
aI315
aI403
aI496
aI652
aI816
aI870
aI1044
aI1227
aI1496
aI1555
aI1684
aI1786
aI1975
aI2109
aa(lp1689
I0
aI150
aI225
aI484
aI603
aI691
aI861
aI968
aI1072
aI1227
aI2205
aa(lp1690
I0
aI119
aI268
aI421
aI562
aI626
aI816
aI938
aa(lp1691
I0
aI124
aI249
aI415
aI572
aa(lp1692
I0
aI135
aI299
aI435
aI546
aI659
aI809
aa(lp1693
I0
aI159
aI265
aI406
aI441
aa(lp1694
I0
aI71
aI143
aI376
aI517
aI624
aa(lp1695
I0
aI113
aI298
aa(lp1696
I0
aI95
aI217
aa(lp1697
I0
aI132
aI207
aI394
aI549
aI785
aI920
aI1190
aI1368
aI1462
aI1604
aa(lp1698
I0
aI171
aI279
aI457
aI571
aI649
aI766
aI850
aI963
aI1036
aI1195
aa(lp1699
I0
aI166
aI451
aI572
aI712
aI849
aa(lp1700
I0
aI106
aI245
aa(lp1701
I0
aI195
aI352
aI512
aI578
aI666
aI701
aI811
aa(lp1702
I0
aI144
aI274
aI560
aI1073
aI1197
aI1233
aI1339
aI1449
aa(lp1703
I0
aI124
aI347
aI463
aI609
aI724
aI858
aI961
aI1172
aI1357
aI1488
aI1616
aa(lp1704
I0
aI216
aI601
aI763
aI839
aI1020
aI1132
aI1220
aI1357
aI1469
aI1561
aI1686
aI1874
aI2431
aa(lp1705
I0
aI164
aI508
aI607
aI724
aa(lp1706
I0
aI206
aI416
aI512
aI651
aI746
aI831
aI1008
aI1193
aI1468
aI1608
aI1753
aI1905
aI1979
aI2104
aa(lp1707
I0
aI118
aI227
aI293
aI392
aI458
aI570
aI621
aI751
aI895
aI985
aI1104
aI1257
aI1323
aI1468
aI1497
aI1611
aI1784
aI1845
aI1905
aI2053
aI2125
aI2228
aI2332
aa(lp1708
I0
aI108
aI240
aI399
aI585
aa(lp1709
I0
aI178
aI357
aa(lp1710
I0
aI174
aI299
aI569
aa(lp1711
I0
aI145
aI323
aI448
aI585
aI709
aI819
aI979
aI1167
aa(lp1712
I0
aI97
aI254
aI393
aa(lp1713
I0
aI100
aI273
aI397
aa(lp1714
I0
aI90
aI171
aI255
aI374
aI475
aI576
aI729
aI973
aI1096
aa(lp1715
I0
aI85
aI207
aI351
aI377
aI500
aI548
aI632
aI699
aa(lp1716
I0
aI232
aI546
aI635
aI806
aI930
aI1026
aI1123
aa(lp1717
I0
aI116
aI227
aI317
aa(lp1718
I0
aI116
aI266
aI443
aI539
aa(lp1719
I0
aI106
aI308
aI539
aI792
aI878
aI981
aI1196
aI1320
aI1484
aI1633
aI1781
aa(lp1720
I0
aI145
aI191
aI506
aI585
aI903
aI1035
aI1177
aI1367
aI1483
aI1649
aI1739
aa(lp1721
I0
aI503
aI583
aI851
aI954
aI1060
aI1283
aI1395
aI1566
aI1653
aI2223
aa(lp1722
I0
aI113
aI234
aI277
aI434
aI632
aI713
aa(lp1723
I0
aI146
aI277
aa(lp1724
I0
aI232
aI310
aI422
aI580
aI666
aI818
aa(lp1725
I0
aI179
aI248
aI302
aI371
aI463
aI578
aI697
aI856
aI953
aa(lp1726
I0
aI161
aI259
aI497
aI581
aI689
aI873
aa(lp1727
I0
aI122
aI207
aa(lp1728
I0
aI160
aI278
aI408
aI562
aI723
aI809
aI956
aI1148
aI1288
aI1399
aa(lp1729
I0
aI167
aI316
aI509
aI622
aI712
aI838
aI882
aI996
aI1113
aI1243
aI1349
aI1432
aI1547
aa(lp1730
I0
aI237
aI296
aI435
aI480
aI598
aI673
aI862
aI1158
aa(lp1731
I0
aI133
aI342
aa(lp1732
I0
aI116
aI216
aI327
aI471
aI599
aI743
aI806
aI871
aI991
aa(lp1733
I0
aI132
aI244
aI304
aI378
aI671
aI702
aI867
aI1032
aI1176
aI1290
aa(lp1734
I0
aI172
aI389
aI457
aI619
aI751
aI887
aa(lp1735
I0
aI58
aI165
aI264
aI349
aI450
aI513
aI667
aI818
aI941
aI1037
aI1169
aI1531
aI1707
aI2007
aI2135
aI2480
aI2588
aa(lp1736
I0
aI187
aI456
aI613
aa(lp1737
I0
aI129
aI248
aa(lp1738
I0
aI289
aI378
aI422
aI609
aI852
aI987
aI1039
aI1198
aI1298
aa(lp1739
I0
aI155
aI315
aI465
aI564
aI693
aI766
aI797
aI879
aa(lp1740
I0
aI121
aI191
aI332
aI519
aI659
aI807
aI910
aa(lp1741
I0
aI209
aI281
aI456
aI534
aI596
aI672
aI745
aI836
aa(lp1742
I0
aI291
aI568
aI720
aa(lp1743
I0
aI130
aI234
aI360
aI557
aI637
aI709
aI829
aI999
aI1179
aI1260
aI1376
aI1460
aa(lp1744
I0
aI733
aI815
aI960
aI1088
aI1220
aI1324
aI1481
aI1593
aI1786
aa(lp1745
I0
aI186
aI284
aI435
aI589
aI752
aI822
aa(lp1746
I0
aI124
aI184
aa(lp1747
I0
aI105
aI208
aI400
aI505
aI697
aI801
aI934
aa(lp1748
I0
aI117
aI261
aI366
aI447
aI554
aI622
aI722
aa(lp1749
I0
aI127
aI283
aI406
aI486
aI586
aI675
aa(lp1750
I0
aI195
aI297
aI428
aI619
aI862
aI979
aI1209
aI1307
aI1528
aI1798
aI1958
aI2177
aI2365
aI2510
aI2634
aI2696
aa(lp1751
I0
aI91
aI157
aI295
aI440
aI585
aI748
aI930
aI1138
aI1278
aI1365
aI1477
aI1552
aI1679
aI1793
aa(lp1752
I0
aI129
aI318
aa(lp1753
I0
aI130
aI201
aI249
aI323
aa(lp1754
I0
aI147
aI479
aa(lp1755
I0
aI206
aI253
aI372
aI420
aI520
aI632
aI781
aI846
aI1038
aI1082
aI1142
aI1278
aa(lp1756
I0
aI124
aI291
aI383
aI421
aI536
aI636
aa(lp1757
I0
aI115
aI177
aI323
aI451
aa(lp1758
I0
aI120
aI272
aI417
aI558
aI684
aI861
aI912
aI1031
aI1125
aI1345
aI1498
aa(lp1759
I0
aI89
aI145
aI322
aI368
aI436
aI539
aI785
aI851
aI958
aI1108
aI1229
aI1378
aI1566
aI1682
aI1793
aI1872
aI1966
aI2105
aI2257
aI2353
aI2470
aI2511
aI2664
aa(lp1760
I0
aI298
aI735
aI811
aI910
aI1034
aI1138
aI1232
aI1314
aI1369
aI1540
aa(lp1761
I0
aI218
aI312
aI435
aa(lp1762
I0
aI138
aI379
aI511
aI634
aI720
aI808
aI943
aI1017
aa(lp1763
I0
aI113
aI338
aI537
aI649
aI782
aI955
aI1085
aI1227
aa(lp1764
I0
aI124
aI358
aI547
aI618
aa(lp1765
I0
aI188
aI340
aI535
aI682
aI728
aI829
aI963
aI1005
aI1170
aa(lp1766
I0
aI121
aI386
aI526
aI573
aI725
aI969
aI1082
aI1155
aI1230
aa(lp1767
I0
aI149
aI224
aI288
aI407
aI462
aI547
aI619
aI693
aI783
aI860
aI947
aI1169
aI1316
aI1411
aI1497
aI1533
aI1618
aI1726
aI1893
aa(lp1768
I0
aI138
aI470
aI606
aI682
aI783
aI903
aI1026
aI1125
aI1346
aI1450
aI1558
aI1678
aa(lp1769
I0
aI94
aI229
aI367
aI517
aI591
aI694
aI863
aI1010
aI1101
aa(lp1770
I0
aI98
aI228
aa(lp1771
I0
aI150
aI256
aI406
aI497
aI573
aI742
aI823
aI971
aa(lp1772
I0
aI108
aI222
aI282
aI352
aI457
aI620
aI677
aI739
aa(lp1773
I0
aI141
aI272
aI309
aI429
aI534
aI573
aa(lp1774
I0
aI168
aI273
aI424
aI516
aI636
aI689
aI727
aI849
aa(lp1775
I0
aI131
aI350
aI475
aI635
aI733
aI818
aI970
aI1068
aI1240
aI1326
aI1456
aI1602
aI1721
aI1804
aI1889
aa(lp1776
I0
aI86
aI150
aI236
aI407
aI521
aI602
aI645
aI837
aI902
aI998
aI1098
aI1187
aa(lp1777
I0
aI125
aI486
aI638
aI695
aI803
aI928
aI999
aI1095
aI1243
aI1437
aI1558
aa(lp1778
I0
aI266
aI339
aI398
aa(lp1779
I0
aI128
aI198
aI311
aI413
aI480
aI665
aI779
aI968
aI1115
aI1159
aI1252
aI1350
aI1429
aI1529
aa(lp1780
I0
aI159
aI372
aI587
aa(lp1781
I0
aI118
aI217
aI307
aI429
aI514
aI615
aI748
aI869
aI973
aI1019
aI1178
aI1225
aa(lp1782
I0
aI111
aI179
aI312
aI680
aI814
aI977
aI1058
aI1220
aI1344
aI1507
aI1600
aI1665
aa(lp1783
I0
aI85
aI185
aI314
aa(lp1784
I0
aI122
aI304
aI418
aI587
aI669
aI781
aI840
aI893
aI1001
aa(lp1785
I0
aI89
aI355
aa(lp1786
I0
aI126
aI252
aI370
aI518
aI601
aI645
aI749
aI853
aI951
aI1057
aI1215
aI1365
aI1478
aI1508
aI1668
aI1716
aI1851
aa(lp1787
I0
aI152
aI370
aI457
aI610
aI754
aI839
aI950
aI1056
aI1119
aI1222
aI1330
aI1408
aI1525
aI1680
aI1779
aI1849
aI1938
aI2099
aI2197
aI2311
aI2449
aa(lp1788
I0
aI188
aI303
aI430
aI508
aI688
aa(lp1789
I0
aI108
aI184
aI376
aI493
aI617
aI824
aI876
aI938
aa(lp1790
I0
aI161
aI298
aI424
aI536
aI645
aI829
aI992
aI1147
aI1250
aa(lp1791
I0
aI171
aI269
aI461
aI601
aa(lp1792
I0
aI93
aI200
aI328
aI477
aI608
aI758
aI814
aI973
aI1097
aI1192
aI1303
aI1384
aI1482
aI1611
aI1688
aa(lp1793
I0
aI170
aI306
aI435
aI588
aI677
aI782
aI854
aI1004
aI1083
aI1200
aI1383
aI1508
aI1727
aI1827
aI1928
aI2023
aI2132
aI2272
aI2345
aI2495
aI2622
aI2763
aI2952
aI3066
aI3225
aI3427
aa(lp1794
I0
aI88
aI184
aI441
aI518
aI671
aI765
aI910
aI1204
aI1401
aI1665
aI1856
aI2113
aI2222
aI2365
aI2472
aa(lp1795
I0
aI481
aI672
aI831
aI942
aI1036
aI1244
aI1308
aI1382
aI1530
aI1699
aI1802
aI1968
aI2093
aI2237
aa(lp1796
I0
aI217
aI357
aI570
aI742
aI863
aa(lp1797
I0
aI122
aI401
aI550
aI719
aI808
aI982
aI1074
aI1146
aa(lp1798
I0
aI64
aI197
aI375
aI421
aI517
aI715
aI794
aI909
aI967
aI1164
aI1264
aI1337
aI1471
aa(lp1799
I0
aI143
aI309
aI438
aI536
aI711
aI822
aI961
aI1068
aI1207
aI1347
aI1464
aI1634
aa(lp1800
I0
aI174
aI235
aI712
aI815
aI942
aI1010
aI1090
aI1206
aI1306
aI1410
aI1527
aI1687
aI1813
aI1868
aI1931
aa(lp1801
I0
aI212
aI317
aI431
aI484
aa.